Archive member included to satisfy reference by file (symbol)

../uc-impl/libhal-uc-core-msp430f5529.a(core_impl.c.obj)
                              CMakeFiles/firmware-msp430f5529.elf.dir/main.c.obj (power_set_full)
../uc-impl/libhal-uc-uart-msp430f5529.a(uart_handlers.c.obj)
                              CMakeFiles/firmware-msp430f5529.elf.dir/main.c.obj (__uart_handler_inclusion)
../uc-impl/libhal-uc-timer-msp430f5529.a(timer_handlers.c.obj)
                              CMakeFiles/firmware-msp430f5529.elf.dir/main.c.obj (__timer_handler_inclusion)
/home/chintal/code/toolchains/packages/msp430/lib/libmodbus-msp430f5529.a(modbus.c.obj)
                              CMakeFiles/firmware-msp430f5529.elf.dir/main.c.obj (modbus_init)
/home/chintal/code/toolchains/packages/msp430/lib/libmodbus-msp430f5529.a(diagnostics.c.obj)
                              /home/chintal/code/toolchains/packages/msp430/lib/libmodbus-msp430f5529.a(modbus.c.obj) (modbus_server_msg_cnt)
/home/chintal/code/toolchains/packages/msp430/lib/libmodbus-msp430f5529.a(common.c.obj)
                              /home/chintal/code/toolchains/packages/msp430/lib/libmodbus-msp430f5529.a(modbus.c.obj) (modbus_crlen)
/home/chintal/code/toolchains/packages/msp430/lib/libmodbus-msp430f5529.a(dispatch.c.obj)
                              /home/chintal/code/toolchains/packages/msp430/lib/libmodbus-msp430f5529.a(modbus.c.obj) (modbus_get_fcode_handler)
/home/chintal/code/toolchains/packages/msp430/lib/libmodbus-msp430f5529.a(uart.c.obj)
                              /home/chintal/code/toolchains/packages/msp430/lib/libmodbus-msp430f5529.a(modbus.c.obj) (modbus_aduformat_uart)
/home/chintal/code/toolchains/packages/msp430/lib/libmodbus-msp430f5529.a(special.c.obj)
                              /home/chintal/code/toolchains/packages/msp430/lib/libmodbus-msp430f5529.a(dispatch.c.obj) (_eit_handler)
/home/chintal/code/toolchains/packages/msp430/lib/libmodbus-msp430f5529.a(regs.c.obj)
                              /home/chintal/code/toolchains/packages/msp430/lib/libmodbus-msp430f5529.a(dispatch.c.obj) (_rwmregs_handler)
/home/chintal/code/toolchains/packages/msp430/lib/libmodbus-msp430f5529.a(control.c.obj)
                              /home/chintal/code/toolchains/packages/msp430/lib/libmodbus-msp430f5529.a(dispatch.c.obj) (_gtcelog_handler)
/home/chintal/code/toolchains/packages/msp430/lib/libmodbus-msp430f5529.a(bits.c.obj)
                              /home/chintal/code/toolchains/packages/msp430/lib/libmodbus-msp430f5529.a(dispatch.c.obj) (_wrmcoils_handler)
../subsystem/libmodbus-if-msp430f5529.a(modbus_iface.c.obj)
                              /home/chintal/code/toolchains/packages/msp430/lib/libmodbus-msp430f5529.a(modbus.c.obj) (modbus_if_init)
/home/chintal/code/toolchains/packages/msp430/lib/libucdm-msp430f5529.a(ucdm.c.obj)
                              /home/chintal/code/toolchains/packages/msp430/lib/libmodbus-msp430f5529.a(regs.c.obj) (ucdm_set_register)
../subsystem/libucdm-if-msp430f5529.a(ucdm_iface.c.obj)
                              CMakeFiles/firmware-msp430f5529.elf.dir/main.c.obj (app_ucdm_init)
/home/chintal/code/toolchains/packages/msp430/lib/libtime-msp430f5529.a(time.c.obj)
                              ../uc-impl/libhal-uc-timer-msp430f5529.a(timer_handlers.c.obj) (tm_current)
../subsystem/libtime-if-msp430f5529.a(time_iface.c.obj)
                              /home/chintal/code/toolchains/packages/msp430/lib/libtime-msp430f5529.a(time.c.obj) (systick_init)
../uc-impl/usb-impl/libmsp430-usbapi-msp430f5529.a(usb_irq_handler.c.obj)
                              CMakeFiles/firmware-msp430f5529.elf.dir/main.c.obj (__usb_handler_inclusion)
../uc-impl/usb-impl/libmsp430-usbapi-msp430f5529.a(usb.c.obj)
                              ../uc-impl/usb-impl/libmsp430-usbapi-msp430f5529.a(usb_irq_handler.c.obj) (wUsbEventMask)
../uc-impl/usb-impl/libmsp430-usbapi-msp430f5529.a(usbdma.c.obj)
                              ../uc-impl/usb-impl/libmsp430-usbapi-msp430f5529.a(usb.c.obj) (USB_initMemcpy)
../uc-impl/usb-impl/libmsp430-usbapi-msp430f5529.a(usbcdc.c.obj)
                              ../subsystem/libmodbus-if-msp430f5529.a(modbus_iface.c.obj) (CdcWriteCtrl)
../uc-impl/usb-impl/libmsp430-usbapi-msp430f5529.a(usb_event_handlers.c.obj)
                              ../uc-impl/usb-impl/libmsp430-usbapi-msp430f5529.a(usb_irq_handler.c.obj) (USB_handleClockEvent)
../uc-impl/usb-impl/libmsp430-usbapi-msp430f5529.a(descriptors.c.obj)
                              ../uc-impl/usb-impl/libmsp430-usbapi-msp430f5529.a(usb.c.obj) (tUsbRequestList)
/home/chintal/code/toolchains/packages/msp430/lib/libds-msp430f5529.a(avltree.c.obj)
                              /home/chintal/code/toolchains/packages/msp430/lib/libucdm-msp430f5529.a(ucdm.c.obj) (avlt_insert_node)
/home/chintal/code/toolchains/packages/msp430/lib/libbytebuf-msp430f5529.a(bytebuf.c.obj)
                              /home/chintal/code/toolchains/packages/msp430/lib/libmodbus-msp430f5529.a(diagnostics.c.obj) (bytebuf_vInit)
../uc-impl/libhal-uc-timer-msp430f5529.a(timer_impl.c.obj)
                              ../subsystem/libtime-if-msp430f5529.a(time_iface.c.obj) (timer_A_init)
/home/chintal/code/toolchains/packages/msp430/lib/libmsp430-driverlib-msp430f5529.a(dma.c.obj)
                              ../uc-impl/usb-impl/libmsp430-usbapi-msp430f5529.a(usbdma.c.obj) (DMA_init)
/home/chintal/code/toolchains/packages/msp430/lib/libmsp430-driverlib-msp430f5529.a(tlv.c.obj)
                              ../uc-impl/usb-impl/libmsp430-usbapi-msp430f5529.a(usb.c.obj) (TLV_getInfo)
/home/chintal/code/toolchains/packages/msp430/lib/libmsp430-driverlib-msp430f5529.a(pmm.c.obj)
                              ../uc-impl/libhal-uc-core-msp430f5529.a(core_impl.c.obj) (PMM_setVCore)
/home/chintal/code/toolchains/packages/msp430/lib/libmsp430-driverlib-msp430f5529.a(ucs.c.obj)
                              ../uc-impl/libhal-uc-core-msp430f5529.a(core_impl.c.obj) (UCS_setExternalClockSource)
/home/chintal/code/toolchains/packages/msp430/lib/libmsp430-driverlib-msp430f5529.a(sfr.c.obj)
                              ../uc-impl/libhal-uc-core-msp430f5529.a(core_impl.c.obj) (SFR_enableInterrupt)
/home/chintal/code/toolchains/packages/msp430/lib/libmsp430-driverlib-msp430f5529.a(gpio.c.obj)
                              CMakeFiles/firmware-msp430f5529.elf.dir/main.c.obj (GPIO_setAsOutputPin)
/home/chintal/code/toolchains/packages/msp430/lib/libmsp430-driverlib-msp430f5529.a(wdt_a.c.obj)
                              CMakeFiles/firmware-msp430f5529.elf.dir/main.c.obj (WDT_A_hold)
/opt/ti/msp430/gcc/bin/../lib/gcc/msp430-elf/5.3.0/libgcc.a(lib2divHI.o)
                              /home/chintal/code/toolchains/packages/msp430/lib/libmsp430-driverlib-msp430f5529.a(ucs.c.obj) (__mspabi_divi)
/opt/ti/msp430/gcc/bin/../lib/gcc/msp430-elf/5.3.0/libgcc.a(lib2divSI.o)
                              /home/chintal/code/toolchains/packages/msp430/lib/libtime-msp430f5529.a(time.c.obj) (__mspabi_divul)
/opt/ti/msp430/gcc/bin/../lib/gcc/msp430-elf/5.3.0/libgcc.a(slli.o)
                              /home/chintal/code/toolchains/packages/msp430/lib/libucdm-msp430f5529.a(ucdm.c.obj) (__mspabi_slli_4)
/opt/ti/msp430/gcc/bin/../lib/gcc/msp430-elf/5.3.0/libgcc.a(srli.o)
                              ../uc-impl/usb-impl/libmsp430-usbapi-msp430f5529.a(usbcdc.c.obj) (__mspabi_srll_8)
/opt/ti/msp430/gcc/bin/../lib/gcc/msp430-elf/5.3.0/libgcc.a(_udivdi3.o)
                              /opt/ti/msp430/gcc/bin/../lib/gcc/msp430-elf/5.3.0/libgcc.a(lib2divSI.o) (__mspabi_divull)
/opt/ti/msp430/gcc/bin/../lib/gcc/msp430-elf/5.3.0/libgcc.a(_lshrdi3.o)
                              /opt/ti/msp430/gcc/bin/../lib/gcc/msp430-elf/5.3.0/libgcc.a(_udivdi3.o) (__lshrdi3)
/opt/ti/msp430/gcc/bin/../lib/gcc/msp430-elf/5.3.0/libgcc.a(_ashldi3.o)
                              /opt/ti/msp430/gcc/bin/../lib/gcc/msp430-elf/5.3.0/libgcc.a(_udivdi3.o) (__ashldi3)
/opt/ti/msp430/gcc/bin/../lib/gcc/msp430-elf/5.3.0/libgcc.a(_clzdi2.o)
                              /opt/ti/msp430/gcc/bin/../lib/gcc/msp430-elf/5.3.0/libgcc.a(_udivdi3.o) (__clzdi2)
/opt/ti/msp430/gcc/bin/../lib/gcc/msp430-elf/5.3.0/libgcc.a(_clz.o)
                              /opt/ti/msp430/gcc/bin/../lib/gcc/msp430-elf/5.3.0/libgcc.a(_clzdi2.o) (__clz_tab)
/opt/ti/msp430/gcc/bin/../lib/gcc/msp430-elf/5.3.0/libmul_f5.a(lib2hw_mul_f5.o)
                              /home/chintal/code/toolchains/packages/msp430/lib/libtime-msp430f5529.a(time.c.obj) (__mulhi2_f5)
/opt/ti/msp430/gcc/bin/../lib/gcc/msp430-elf/5.3.0/../../../../msp430-elf/lib/libc.a(lib_a-memcpy.o)
                              ../uc-impl/usb-impl/libmsp430-usbapi-msp430f5529.a(usbcdc.c.obj) (memcpy)
/opt/ti/msp430/gcc/bin/../lib/gcc/msp430-elf/5.3.0/../../../../msp430-elf/lib/libc.a(lib_a-memset.o)
                              /home/chintal/code/toolchains/packages/msp430/lib/libucdm-msp430f5529.a(ucdm.c.obj) (memset)
/opt/ti/msp430/gcc/bin/../lib/gcc/msp430-elf/5.3.0/libgcc.a(_muldi3.o)
                              /opt/ti/msp430/gcc/bin/../lib/gcc/msp430-elf/5.3.0/libmul_f5.a(lib2hw_mul_f5.o) (__mspabi_mpyll)
/opt/ti/msp430/gcc/bin/../lib/gcc/msp430-elf/5.3.0/../../../../msp430-elf/lib/libcrt.a(crt_bss.o)
                              /opt/ti/msp430/gcc/bin/../lib/gcc/msp430-elf/5.3.0/crtbegin.o (__crt0_init_bss)
/opt/ti/msp430/gcc/bin/../lib/gcc/msp430-elf/5.3.0/../../../../msp430-elf/lib/libcrt.a(crt_movedata.o)
                              /opt/ti/msp430/gcc/bin/../lib/gcc/msp430-elf/5.3.0/crtbegin.o (__crt0_movedata)
/opt/ti/msp430/gcc/bin/../lib/gcc/msp430-elf/5.3.0/../../../../msp430-elf/lib/libcrt.a(crt_main.o)
                              /opt/ti/msp430/gcc/bin/../lib/gcc/msp430-elf/5.3.0/../../../../msp430-elf/lib/crt0.o (__crt0_call_init_then_main)
/opt/ti/msp430/gcc/bin/../lib/gcc/msp430-elf/5.3.0/../../../../msp430-elf/lib/libc.a(lib_a-memmove.o)
                              /opt/ti/msp430/gcc/bin/../lib/gcc/msp430-elf/5.3.0/../../../../msp430-elf/lib/libcrt.a(crt_movedata.o) (memmove)

Allocating common symbols
Common symbol       size              file

ucdm_bwht           0x2               /home/chintal/code/toolchains/packages/msp430/lib/libucdm-msp430f5529.a(ucdm.c.obj)
ucdm_exception_status
                    0x1               /home/chintal/code/toolchains/packages/msp430/lib/libucdm-msp430f5529.a(ucdm.c.obj)
abUsbRequestIncomingData
                    0x8               ../uc-impl/usb-impl/libmsp430-usbapi-msp430f5529.a(usb.c.obj)
epoch_change_handlers
                    0x4               /home/chintal/code/toolchains/packages/msp430/lib/libtime-msp430f5529.a(time.c.obj)
modbus_server_nak_cnt
                    0x2               /home/chintal/code/toolchains/packages/msp430/lib/libmodbus-msp430f5529.a(diagnostics.c.obj)
modbus_server_msg_cnt
                    0x2               /home/chintal/code/toolchains/packages/msp430/lib/libmodbus-msp430f5529.a(diagnostics.c.obj)
ucdm_register       0x80              ../subsystem/libucdm-if-msp430f5529.a(ucdm_iface.c.obj)
ucdm_diagnostic_register
                    0x2               /home/chintal/code/toolchains/packages/msp430/lib/libucdm-msp430f5529.a(ucdm.c.obj)
abUsbRequestReturnData
                    0x8               ../uc-impl/usb-impl/libmsp430-usbapi-msp430f5529.a(usb.c.obj)
CdcWriteBufferCtrl  0x3c              ../uc-impl/usb-impl/libmsp430-usbapi-msp430f5529.a(usbcdc.c.obj)
modbus_bus_exception_cnt
                    0x2               /home/chintal/code/toolchains/packages/msp430/lib/libmodbus-msp430f5529.a(diagnostics.c.obj)
modbus_ctrans       0x4               /home/chintal/code/toolchains/packages/msp430/lib/libmodbus-msp430f5529.a(modbus.c.obj)
CdcWriteCtrl        0x18              ../uc-impl/usb-impl/libmsp430-usbapi-msp430f5529.a(usbcdc.c.obj)
modbus_server_busy_cnt
                    0x2               /home/chintal/code/toolchains/packages/msp430/lib/libmodbus-msp430f5529.a(diagnostics.c.obj)
modbus_comm_event_log_buf
                    0x40              /home/chintal/code/toolchains/packages/msp430/lib/libmodbus-msp430f5529.a(diagnostics.c.obj)
modbus_rxtxbuf      0x100             /home/chintal/code/toolchains/packages/msp430/lib/libmodbus-msp430f5529.a(modbus.c.obj)
modbus_bus_char_overrun_cnt
                    0x2               /home/chintal/code/toolchains/packages/msp430/lib/libmodbus-msp430f5529.a(diagnostics.c.obj)
CdcControl          0x18              ../uc-impl/usb-impl/libmsp430-usbapi-msp430f5529.a(usbcdc.c.obj)
modbus_next_timeout
                    0x4               /home/chintal/code/toolchains/packages/msp430/lib/libmodbus-msp430f5529.a(modbus.c.obj)
abramSerialStringDescriptor
                    0x22              ../uc-impl/usb-impl/libmsp430-usbapi-msp430f5529.a(usb.c.obj)
CdcReadCtrl         0x12              ../uc-impl/usb-impl/libmsp430-usbapi-msp430f5529.a(usbcdc.c.obj)
modbus_comm_event_cnt
                    0x2               /home/chintal/code/toolchains/packages/msp430/lib/libmodbus-msp430f5529.a(diagnostics.c.obj)
wUsbEventMask       0x2               ../uc-impl/usb-impl/libmsp430-usbapi-msp430f5529.a(usb.c.obj)
DMAP_MAXBITS        0x2               /home/chintal/code/toolchains/packages/msp430/lib/libucdm-msp430f5529.a(ucdm.c.obj)
CdcReadBufferCtrl   0x30              ../uc-impl/usb-impl/libmsp430-usbapi-msp430f5529.a(usbcdc.c.obj)
wBytesRemainingOnIEP0
                    0x2               ../uc-impl/usb-impl/libmsp430-usbapi-msp430f5529.a(usb.c.obj)
ucdm_acctype        0x40              ../subsystem/libucdm-if-msp430f5529.a(ucdm_iface.c.obj)
wBytesRemainingOnOEP0
                    0x2               ../uc-impl/usb-impl/libmsp430-usbapi-msp430f5529.a(usb.c.obj)
modbus_comm_event_log
                    0xa               /home/chintal/code/toolchains/packages/msp430/lib/libmodbus-msp430f5529.a(diagnostics.c.obj)
modbus_bus_msg_cnt  0x2               /home/chintal/code/toolchains/packages/msp430/lib/libmodbus-msp430f5529.a(diagnostics.c.obj)
bStatusAction       0x1               ../uc-impl/usb-impl/libmsp430-usbapi-msp430f5529.a(usb.c.obj)
__usb_handler_inclusion
                    0x1               ../uc-impl/usb-impl/libmsp430-usbapi-msp430f5529.a(usb_irq_handler.c.obj)
modbus_bus_comm_err_cnt
                    0x2               /home/chintal/code/toolchains/packages/msp430/lib/libmodbus-msp430f5529.a(diagnostics.c.obj)
USB_RX_memcpy       0x2               ../uc-impl/usb-impl/libmsp430-usbapi-msp430f5529.a(usbdma.c.obj)
__uart_handler_inclusion
                    0x1               ../uc-impl/libhal-uc-uart-msp430f5529.a(uart_handlers.c.obj)
modbus_server_noresp_cnt
                    0x2               /home/chintal/code/toolchains/packages/msp430/lib/libmodbus-msp430f5529.a(diagnostics.c.obj)
ucdm_rwht           0x2               /home/chintal/code/toolchains/packages/msp430/lib/libucdm-msp430f5529.a(ucdm.c.obj)
__timer_handler_inclusion
                    0x1               ../uc-impl/libhal-uc-timer-msp430f5529.a(timer_handlers.c.obj)
USB_TX_memcpy       0x2               ../uc-impl/usb-impl/libmsp430-usbapi-msp430f5529.a(usbdma.c.obj)

Discarded input sections

 .text          0x00000000        0x0 /opt/ti/msp430/gcc/bin/../lib/gcc/msp430-elf/5.3.0/../../../../msp430-elf/lib/crt0.o
 .data          0x00000000        0x0 /opt/ti/msp430/gcc/bin/../lib/gcc/msp430-elf/5.3.0/../../../../msp430-elf/lib/crt0.o
 .bss           0x00000000        0x0 /opt/ti/msp430/gcc/bin/../lib/gcc/msp430-elf/5.3.0/../../../../msp430-elf/lib/crt0.o
 .text          0x00000000        0x4 /opt/ti/msp430/gcc/bin/../lib/gcc/msp430-elf/5.3.0/crtbegin.o
 .data          0x00000000        0x0 /opt/ti/msp430/gcc/bin/../lib/gcc/msp430-elf/5.3.0/crtbegin.o
 .bss           0x00000000        0x0 /opt/ti/msp430/gcc/bin/../lib/gcc/msp430-elf/5.3.0/crtbegin.o
 .data.__dso_handle
                0x00000000        0x2 /opt/ti/msp430/gcc/bin/../lib/gcc/msp430-elf/5.3.0/crtbegin.o
 .text.call___do_global_dtors_aux
                0x00000000        0x0 /opt/ti/msp430/gcc/bin/../lib/gcc/msp430-elf/5.3.0/crtbegin.o
 .text.call_frame_dummy
                0x00000000        0x0 /opt/ti/msp430/gcc/bin/../lib/gcc/msp430-elf/5.3.0/crtbegin.o
 .text          0x00000000        0x0 CMakeFiles/firmware-msp430f5529.elf.dir/main.c.obj
 .data          0x00000000        0x0 CMakeFiles/firmware-msp430f5529.elf.dir/main.c.obj
 .bss           0x00000000        0x0 CMakeFiles/firmware-msp430f5529.elf.dir/main.c.obj
 .bss.rval      0x00000000        0x1 CMakeFiles/firmware-msp430f5529.elf.dir/main.c.obj
 .text          0x00000000        0x0 ../uc-impl/libhal-uc-core-msp430f5529.a(core_impl.c.obj)
 .data          0x00000000        0x0 ../uc-impl/libhal-uc-core-msp430f5529.a(core_impl.c.obj)
 .bss           0x00000000        0x0 ../uc-impl/libhal-uc-core-msp430f5529.a(core_impl.c.obj)
 .text.watchdog_init
                0x00000000        0xe ../uc-impl/libhal-uc-core-msp430f5529.a(core_impl.c.obj)
 .debug_line.text.watchdog_init
                0x00000000       0x1c ../uc-impl/libhal-uc-core-msp430f5529.a(core_impl.c.obj)
 .text          0x00000000        0x0 ../uc-impl/libhal-uc-uart-msp430f5529.a(uart_handlers.c.obj)
 .data          0x00000000        0x0 ../uc-impl/libhal-uc-uart-msp430f5529.a(uart_handlers.c.obj)
 .bss           0x00000000        0x0 ../uc-impl/libhal-uc-uart-msp430f5529.a(uart_handlers.c.obj)
 .text          0x00000000        0x0 ../uc-impl/libhal-uc-timer-msp430f5529.a(timer_handlers.c.obj)
 .data          0x00000000        0x0 ../uc-impl/libhal-uc-timer-msp430f5529.a(timer_handlers.c.obj)
 .bss           0x00000000        0x0 ../uc-impl/libhal-uc-timer-msp430f5529.a(timer_handlers.c.obj)
 .text          0x00000000        0x0 /home/chintal/code/toolchains/packages/msp430/lib/libmodbus-msp430f5529.a(modbus.c.obj)
 .data          0x00000000        0x0 /home/chintal/code/toolchains/packages/msp430/lib/libmodbus-msp430f5529.a(modbus.c.obj)
 .bss           0x00000000        0x0 /home/chintal/code/toolchains/packages/msp430/lib/libmodbus-msp430f5529.a(modbus.c.obj)
 .text.modbus_reset_sm
                0x00000000       0x14 /home/chintal/code/toolchains/packages/msp430/lib/libmodbus-msp430f5529.a(modbus.c.obj)
 .text.modbus_reset_all
                0x00000000       0x18 /home/chintal/code/toolchains/packages/msp430/lib/libmodbus-msp430f5529.a(modbus.c.obj)
 .debug_line.text.modbus_reset_sm
                0x00000000       0x28 /home/chintal/code/toolchains/packages/msp430/lib/libmodbus-msp430f5529.a(modbus.c.obj)
 .debug_line.text.modbus_reset_all
                0x00000000       0x2f /home/chintal/code/toolchains/packages/msp430/lib/libmodbus-msp430f5529.a(modbus.c.obj)
 .text          0x00000000        0x0 /home/chintal/code/toolchains/packages/msp430/lib/libmodbus-msp430f5529.a(diagnostics.c.obj)
 .data          0x00000000        0x0 /home/chintal/code/toolchains/packages/msp430/lib/libmodbus-msp430f5529.a(diagnostics.c.obj)
 .bss           0x00000000        0x0 /home/chintal/code/toolchains/packages/msp430/lib/libmodbus-msp430f5529.a(diagnostics.c.obj)
 .text          0x00000000        0x0 /home/chintal/code/toolchains/packages/msp430/lib/libmodbus-msp430f5529.a(common.c.obj)
 .data          0x00000000        0x0 /home/chintal/code/toolchains/packages/msp430/lib/libmodbus-msp430f5529.a(common.c.obj)
 .bss           0x00000000        0x0 /home/chintal/code/toolchains/packages/msp430/lib/libmodbus-msp430f5529.a(common.c.obj)
 .text          0x00000000        0x0 /home/chintal/code/toolchains/packages/msp430/lib/libmodbus-msp430f5529.a(dispatch.c.obj)
 .data          0x00000000        0x0 /home/chintal/code/toolchains/packages/msp430/lib/libmodbus-msp430f5529.a(dispatch.c.obj)
 .bss           0x00000000        0x0 /home/chintal/code/toolchains/packages/msp430/lib/libmodbus-msp430f5529.a(dispatch.c.obj)
 .text          0x00000000        0x0 /home/chintal/code/toolchains/packages/msp430/lib/libmodbus-msp430f5529.a(uart.c.obj)
 .data          0x00000000        0x0 /home/chintal/code/toolchains/packages/msp430/lib/libmodbus-msp430f5529.a(uart.c.obj)
 .bss           0x00000000        0x0 /home/chintal/code/toolchains/packages/msp430/lib/libmodbus-msp430f5529.a(uart.c.obj)
 .text          0x00000000        0x0 /home/chintal/code/toolchains/packages/msp430/lib/libmodbus-msp430f5529.a(special.c.obj)
 .data          0x00000000        0x0 /home/chintal/code/toolchains/packages/msp430/lib/libmodbus-msp430f5529.a(special.c.obj)
 .bss           0x00000000        0x0 /home/chintal/code/toolchains/packages/msp430/lib/libmodbus-msp430f5529.a(special.c.obj)
 .text.modbus_handler_rdfrec
                0x00000000        0x6 /home/chintal/code/toolchains/packages/msp430/lib/libmodbus-msp430f5529.a(special.c.obj)
 .text.modbus_handler_wrfrec
                0x00000000        0x6 /home/chintal/code/toolchains/packages/msp430/lib/libmodbus-msp430f5529.a(special.c.obj)
 .text.modbus_handler_fifoq
                0x00000000        0x6 /home/chintal/code/toolchains/packages/msp430/lib/libmodbus-msp430f5529.a(special.c.obj)
 .text.modbus_handler_eit
                0x00000000        0x6 /home/chintal/code/toolchains/packages/msp430/lib/libmodbus-msp430f5529.a(special.c.obj)
 .debug_line.text.modbus_handler_eit
                0x00000000       0x22 /home/chintal/code/toolchains/packages/msp430/lib/libmodbus-msp430f5529.a(special.c.obj)
 .text          0x00000000        0x0 /home/chintal/code/toolchains/packages/msp430/lib/libmodbus-msp430f5529.a(regs.c.obj)
 .data          0x00000000        0x0 /home/chintal/code/toolchains/packages/msp430/lib/libmodbus-msp430f5529.a(regs.c.obj)
 .bss           0x00000000        0x0 /home/chintal/code/toolchains/packages/msp430/lib/libmodbus-msp430f5529.a(regs.c.obj)
 .text          0x00000000        0x0 /home/chintal/code/toolchains/packages/msp430/lib/libmodbus-msp430f5529.a(control.c.obj)
 .data          0x00000000        0x0 /home/chintal/code/toolchains/packages/msp430/lib/libmodbus-msp430f5529.a(control.c.obj)
 .bss           0x00000000        0x0 /home/chintal/code/toolchains/packages/msp430/lib/libmodbus-msp430f5529.a(control.c.obj)
 .text          0x00000000        0x0 /home/chintal/code/toolchains/packages/msp430/lib/libmodbus-msp430f5529.a(bits.c.obj)
 .data          0x00000000        0x0 /home/chintal/code/toolchains/packages/msp430/lib/libmodbus-msp430f5529.a(bits.c.obj)
 .bss           0x00000000        0x0 /home/chintal/code/toolchains/packages/msp430/lib/libmodbus-msp430f5529.a(bits.c.obj)
 .text.modbus_handler_rdbits
                0x00000000        0x6 /home/chintal/code/toolchains/packages/msp430/lib/libmodbus-msp430f5529.a(bits.c.obj)
 .text.modbus_handler_wrbits
                0x00000000        0x6 /home/chintal/code/toolchains/packages/msp430/lib/libmodbus-msp430f5529.a(bits.c.obj)
 .debug_line.text.modbus_handler_wrbits
                0x00000000       0x22 /home/chintal/code/toolchains/packages/msp430/lib/libmodbus-msp430f5529.a(bits.c.obj)
 .text          0x00000000        0x0 ../subsystem/libmodbus-if-msp430f5529.a(modbus_iface.c.obj)
 .data          0x00000000        0x0 ../subsystem/libmodbus-if-msp430f5529.a(modbus_iface.c.obj)
 .bss           0x00000000        0x0 ../subsystem/libmodbus-if-msp430f5529.a(modbus_iface.c.obj)
 .text.modbus_if_getc
                0x00000000        0x8 ../subsystem/libmodbus-if-msp430f5529.a(modbus_iface.c.obj)
 .text.modbus_if_putc
                0x00000000       0x10 ../subsystem/libmodbus-if-msp430f5529.a(modbus_iface.c.obj)
 .debug_line.text.modbus_if_getc
                0x00000000       0x20 ../subsystem/libmodbus-if-msp430f5529.a(modbus_iface.c.obj)
 .debug_line.text.modbus_if_putc
                0x00000000       0x2a ../subsystem/libmodbus-if-msp430f5529.a(modbus_iface.c.obj)
 .text          0x00000000        0x0 /home/chintal/code/toolchains/packages/msp430/lib/libucdm-msp430f5529.a(ucdm.c.obj)
 .data          0x00000000        0x0 /home/chintal/code/toolchains/packages/msp430/lib/libucdm-msp430f5529.a(ucdm.c.obj)
 .bss           0x00000000        0x0 /home/chintal/code/toolchains/packages/msp430/lib/libucdm-msp430f5529.a(ucdm.c.obj)
 .text.ucdm_redirect_regr_ptr
                0x00000000        0xc /home/chintal/code/toolchains/packages/msp430/lib/libucdm-msp430f5529.a(ucdm.c.obj)
 .text.ucdm_redirect_regr_func
                0x00000000        0xc /home/chintal/code/toolchains/packages/msp430/lib/libucdm-msp430f5529.a(ucdm.c.obj)
 .text.ucdm_disable_bitw
                0x00000000        0x6 /home/chintal/code/toolchains/packages/msp430/lib/libucdm-msp430f5529.a(ucdm.c.obj)
 .text.ucdm_disable_regw
                0x00000000        0x8 /home/chintal/code/toolchains/packages/msp430/lib/libucdm-msp430f5529.a(ucdm.c.obj)
 .text.ucdm_redirect_regw_ptr
                0x00000000        0xe /home/chintal/code/toolchains/packages/msp430/lib/libucdm-msp430f5529.a(ucdm.c.obj)
 .text.ucdm_redirect_regw_func
                0x00000000        0xe /home/chintal/code/toolchains/packages/msp430/lib/libucdm-msp430f5529.a(ucdm.c.obj)
 .text.ucdm_install_regw_handler
                0x00000000       0x18 /home/chintal/code/toolchains/packages/msp430/lib/libucdm-msp430f5529.a(ucdm.c.obj)
 .text.ucdm_install_bitw_handler
                0x00000000       0x16 /home/chintal/code/toolchains/packages/msp430/lib/libucdm-msp430f5529.a(ucdm.c.obj)
 .text.ucdm_get_bit
                0x00000000       0x52 /home/chintal/code/toolchains/packages/msp430/lib/libucdm-msp430f5529.a(ucdm.c.obj)
 .debug_line.text.ucdm_redirect_regr_ptr
                0x00000000       0x23 /home/chintal/code/toolchains/packages/msp430/lib/libucdm-msp430f5529.a(ucdm.c.obj)
 .debug_line.text.ucdm_redirect_regr_func
                0x00000000       0x23 /home/chintal/code/toolchains/packages/msp430/lib/libucdm-msp430f5529.a(ucdm.c.obj)
 .debug_line.text.ucdm_disable_bitw
                0x00000000       0x1d /home/chintal/code/toolchains/packages/msp430/lib/libucdm-msp430f5529.a(ucdm.c.obj)
 .debug_line.text.ucdm_disable_regw
                0x00000000       0x1d /home/chintal/code/toolchains/packages/msp430/lib/libucdm-msp430f5529.a(ucdm.c.obj)
 .debug_line.text.ucdm_redirect_regw_ptr
                0x00000000       0x23 /home/chintal/code/toolchains/packages/msp430/lib/libucdm-msp430f5529.a(ucdm.c.obj)
 .debug_line.text.ucdm_redirect_regw_func
                0x00000000       0x23 /home/chintal/code/toolchains/packages/msp430/lib/libucdm-msp430f5529.a(ucdm.c.obj)
 .debug_line.text.ucdm_install_regw_handler
                0x00000000       0x2f /home/chintal/code/toolchains/packages/msp430/lib/libucdm-msp430f5529.a(ucdm.c.obj)
 .debug_line.text.ucdm_install_bitw_handler
                0x00000000       0x2f /home/chintal/code/toolchains/packages/msp430/lib/libucdm-msp430f5529.a(ucdm.c.obj)
 .debug_line.text.ucdm_get_bit
                0x00000000       0x5f /home/chintal/code/toolchains/packages/msp430/lib/libucdm-msp430f5529.a(ucdm.c.obj)
 .text          0x00000000        0x0 ../subsystem/libucdm-if-msp430f5529.a(ucdm_iface.c.obj)
 .data          0x00000000        0x0 ../subsystem/libucdm-if-msp430f5529.a(ucdm_iface.c.obj)
 .bss           0x00000000        0x0 ../subsystem/libucdm-if-msp430f5529.a(ucdm_iface.c.obj)
 .text          0x00000000        0x0 /home/chintal/code/toolchains/packages/msp430/lib/libtime-msp430f5529.a(time.c.obj)
 .data          0x00000000        0x0 /home/chintal/code/toolchains/packages/msp430/lib/libtime-msp430f5529.a(time.c.obj)
 .bss           0x00000000        0x0 /home/chintal/code/toolchains/packages/msp430/lib/libtime-msp430f5529.a(time.c.obj)
 .text.tm_init  0x00000000       0x58 /home/chintal/code/toolchains/packages/msp430/lib/libtime-msp430f5529.a(time.c.obj)
 .text.clear_stime
                0x00000000        0xe /home/chintal/code/toolchains/packages/msp430/lib/libtime-msp430f5529.a(time.c.obj)
 .text.clear_sdelta
                0x00000000       0x12 /home/chintal/code/toolchains/packages/msp430/lib/libtime-msp430f5529.a(time.c.obj)
 .text.clear_rtime
                0x00000000       0x22 /home/chintal/code/toolchains/packages/msp430/lib/libtime-msp430f5529.a(time.c.obj)
 .text.clear_rdelta
                0x00000000       0x1a /home/chintal/code/toolchains/packages/msp430/lib/libtime-msp430f5529.a(time.c.obj)
 .text.tm_cmp_stime
                0x00000000       0x50 /home/chintal/code/toolchains/packages/msp430/lib/libtime-msp430f5529.a(time.c.obj)
 .text.tm_get_sdelta
                0x00000000       0xbe /home/chintal/code/toolchains/packages/msp430/lib/libtime-msp430f5529.a(time.c.obj)
 .text.tm_apply_sdelta
                0x00000000       0x94 /home/chintal/code/toolchains/packages/msp430/lib/libtime-msp430f5529.a(time.c.obj)
 .text.tm_sdelta_from_rdelta
                0x00000000       0xca /home/chintal/code/toolchains/packages/msp430/lib/libtime-msp430f5529.a(time.c.obj)
 .text.tm_rdelta_from_sdelta
                0x00000000      0x12e /home/chintal/code/toolchains/packages/msp430/lib/libtime-msp430f5529.a(time.c.obj)
 .text.tm_stime_from_rtime
                0x00000000      0x190 /home/chintal/code/toolchains/packages/msp430/lib/libtime-msp430f5529.a(time.c.obj)
 .text.tm_rtime_from_stime
                0x00000000        0x2 /home/chintal/code/toolchains/packages/msp430/lib/libtime-msp430f5529.a(time.c.obj)
 .text.tm_set_epoch
                0x00000000      0x1cc /home/chintal/code/toolchains/packages/msp430/lib/libtime-msp430f5529.a(time.c.obj)
 .text.tm_register_epoch_change
                0x00000000       0x1a /home/chintal/code/toolchains/packages/msp430/lib/libtime-msp430f5529.a(time.c.obj)
 .rodata.days_to_month
                0x00000000       0x1a /home/chintal/code/toolchains/packages/msp430/lib/libtime-msp430f5529.a(time.c.obj)
 .bss.tm_installed_epoch_handlers
                0x00000000        0x1 /home/chintal/code/toolchains/packages/msp430/lib/libtime-msp430f5529.a(time.c.obj)
 .bss.tm_leapseconds
                0x00000000        0x1 /home/chintal/code/toolchains/packages/msp430/lib/libtime-msp430f5529.a(time.c.obj)
 .data.use_epoch
                0x00000000        0x1 /home/chintal/code/toolchains/packages/msp430/lib/libtime-msp430f5529.a(time.c.obj)
 .data.tm_internal_epoch_offset
                0x00000000        0x4 /home/chintal/code/toolchains/packages/msp430/lib/libtime-msp430f5529.a(time.c.obj)
 .data.tm_internal_epoch
                0x00000000        0xa /home/chintal/code/toolchains/packages/msp430/lib/libtime-msp430f5529.a(time.c.obj)
 .data.tm_epoch
                0x00000000        0xa /home/chintal/code/toolchains/packages/msp430/lib/libtime-msp430f5529.a(time.c.obj)
 .debug_line.text.tm_init
                0x00000000       0x48 /home/chintal/code/toolchains/packages/msp430/lib/libtime-msp430f5529.a(time.c.obj)
 .debug_line.text.clear_stime
                0x00000000       0x23 /home/chintal/code/toolchains/packages/msp430/lib/libtime-msp430f5529.a(time.c.obj)
 .debug_line.text.clear_sdelta
                0x00000000       0x29 /home/chintal/code/toolchains/packages/msp430/lib/libtime-msp430f5529.a(time.c.obj)
 .debug_line.text.clear_rtime
                0x00000000       0x47 /home/chintal/code/toolchains/packages/msp430/lib/libtime-msp430f5529.a(time.c.obj)
 .debug_line.text.clear_rdelta
                0x00000000       0x3b /home/chintal/code/toolchains/packages/msp430/lib/libtime-msp430f5529.a(time.c.obj)
 .debug_line.text.tm_cmp_stime
                0x00000000       0x53 /home/chintal/code/toolchains/packages/msp430/lib/libtime-msp430f5529.a(time.c.obj)
 .debug_line.text.tm_get_sdelta
                0x00000000       0x7d /home/chintal/code/toolchains/packages/msp430/lib/libtime-msp430f5529.a(time.c.obj)
 .debug_line.text.tm_apply_sdelta
                0x00000000       0x71 /home/chintal/code/toolchains/packages/msp430/lib/libtime-msp430f5529.a(time.c.obj)
 .debug_line.text.tm_sdelta_from_rdelta
                0x00000000       0x3b /home/chintal/code/toolchains/packages/msp430/lib/libtime-msp430f5529.a(time.c.obj)
 .debug_line.text.tm_rdelta_from_sdelta
                0x00000000       0x73 /home/chintal/code/toolchains/packages/msp430/lib/libtime-msp430f5529.a(time.c.obj)
 .debug_line.text.tm_stime_from_rtime
                0x00000000       0xa1 /home/chintal/code/toolchains/packages/msp430/lib/libtime-msp430f5529.a(time.c.obj)
 .debug_line.text.tm_rtime_from_stime
                0x00000000       0x17 /home/chintal/code/toolchains/packages/msp430/lib/libtime-msp430f5529.a(time.c.obj)
 .debug_line.text.tm_set_epoch
                0x00000000       0xeb /home/chintal/code/toolchains/packages/msp430/lib/libtime-msp430f5529.a(time.c.obj)
 .debug_line.text.tm_register_epoch_change
                0x00000000       0x29 /home/chintal/code/toolchains/packages/msp430/lib/libtime-msp430f5529.a(time.c.obj)
 COMMON         0x00000000        0x4 /home/chintal/code/toolchains/packages/msp430/lib/libtime-msp430f5529.a(time.c.obj)
 .text          0x00000000        0x0 ../subsystem/libtime-if-msp430f5529.a(time_iface.c.obj)
 .data          0x00000000        0x0 ../subsystem/libtime-if-msp430f5529.a(time_iface.c.obj)
 .bss           0x00000000        0x0 ../subsystem/libtime-if-msp430f5529.a(time_iface.c.obj)
 .text.systick_init
                0x00000000       0x7c ../subsystem/libtime-if-msp430f5529.a(time_iface.c.obj)
 .text.time_get_rtc_time
                0x00000000        0x4 ../subsystem/libtime-if-msp430f5529.a(time_iface.c.obj)
 .debug_line.text.systick_init
                0x00000000       0x67 ../subsystem/libtime-if-msp430f5529.a(time_iface.c.obj)
 .debug_line.text.time_get_rtc_time
                0x00000000       0x16 ../subsystem/libtime-if-msp430f5529.a(time_iface.c.obj)
 .text          0x00000000        0x0 ../uc-impl/usb-impl/libmsp430-usbapi-msp430f5529.a(usb_irq_handler.c.obj)
 .data          0x00000000        0x0 ../uc-impl/usb-impl/libmsp430-usbapi-msp430f5529.a(usb_irq_handler.c.obj)
 .bss           0x00000000        0x0 ../uc-impl/usb-impl/libmsp430-usbapi-msp430f5529.a(usb_irq_handler.c.obj)
 .text.PWRVBUSoffHandler
                0x00000000       0x1a ../uc-impl/usb-impl/libmsp430-usbapi-msp430f5529.a(usb_irq_handler.c.obj)
 .text.PWRVBUSonHandler
                0x00000000       0x1a ../uc-impl/usb-impl/libmsp430-usbapi-msp430f5529.a(usb_irq_handler.c.obj)
 .debug_line.text.PWRVBUSoffHandler
                0x00000000       0x23 ../uc-impl/usb-impl/libmsp430-usbapi-msp430f5529.a(usb_irq_handler.c.obj)
 .debug_line.text.PWRVBUSonHandler
                0x00000000       0x23 ../uc-impl/usb-impl/libmsp430-usbapi-msp430f5529.a(usb_irq_handler.c.obj)
 .text          0x00000000        0x0 ../uc-impl/usb-impl/libmsp430-usbapi-msp430f5529.a(usb.c.obj)
 .data          0x00000000        0x0 ../uc-impl/usb-impl/libmsp430-usbapi-msp430f5529.a(usb.c.obj)
 .bss           0x00000000        0x0 ../uc-impl/usb-impl/libmsp430-usbapi-msp430f5529.a(usb.c.obj)
 .text.USB_disable
                0x00000000       0x22 ../uc-impl/usb-impl/libmsp430-usbapi-msp430f5529.a(usb.c.obj)
 .text.USB_setEnabledEvents
                0x00000000        0x8 ../uc-impl/usb-impl/libmsp430-usbapi-msp430f5529.a(usb.c.obj)
 .text.USB_getEnabledEvents
                0x00000000        0x6 ../uc-impl/usb-impl/libmsp430-usbapi-msp430f5529.a(usb.c.obj)
 .text.USB_disconnect
                0x00000000       0x22 ../uc-impl/usb-impl/libmsp430-usbapi-msp430f5529.a(usb.c.obj)
 .text.USB_forceRemoteWakeup
                0x00000000       0x20 ../uc-impl/usb-impl/libmsp430-usbapi-msp430f5529.a(usb.c.obj)
 .text.USB_getConnectionState
                0x00000000       0x9e ../uc-impl/usb-impl/libmsp430-usbapi-msp430f5529.a(usb.c.obj)
 .text.usbStallEndpoint0
                0x00000000        0xe ../uc-impl/usb-impl/libmsp430-usbapi-msp430f5529.a(usb.c.obj)
 .text.usbClearOEP0ByteCount
                0x00000000        0x6 ../uc-impl/usb-impl/libmsp430-usbapi-msp430f5529.a(usb.c.obj)
 .text.usbStallOEP0
                0x00000000        0xa ../uc-impl/usb-impl/libmsp430-usbapi-msp430f5529.a(usb.c.obj)
 .text.usbDisableInEndpointInterrupt
                0x00000000       0x1a ../uc-impl/usb-impl/libmsp430-usbapi-msp430f5529.a(usb.c.obj)
 .text.usbRestoreInEndpointInterrupt
                0x00000000        0x6 ../uc-impl/usb-impl/libmsp430-usbapi-msp430f5529.a(usb.c.obj)
 .text.usbDisableOutEndpointInterrupt
                0x00000000       0x1a ../uc-impl/usb-impl/libmsp430-usbapi-msp430f5529.a(usb.c.obj)
 .text.usbRestoreOutEndpointInterrupt
                0x00000000        0x6 ../uc-impl/usb-impl/libmsp430-usbapi-msp430f5529.a(usb.c.obj)
 .debug_line.text.USB_disable
                0x00000000       0x3b ../uc-impl/usb-impl/libmsp430-usbapi-msp430f5529.a(usb.c.obj)
 .debug_line.text.USB_setEnabledEvents
                0x00000000       0x1d ../uc-impl/usb-impl/libmsp430-usbapi-msp430f5529.a(usb.c.obj)
 .debug_line.text.USB_getEnabledEvents
                0x00000000       0x17 ../uc-impl/usb-impl/libmsp430-usbapi-msp430f5529.a(usb.c.obj)
 .debug_line.text.USB_disconnect
                0x00000000       0x3b ../uc-impl/usb-impl/libmsp430-usbapi-msp430f5529.a(usb.c.obj)
 .debug_line.text.USB_forceRemoteWakeup
                0x00000000       0x47 ../uc-impl/usb-impl/libmsp430-usbapi-msp430f5529.a(usb.c.obj)
 .debug_line.text.USB_getConnectionState
                0x00000000       0xd5 ../uc-impl/usb-impl/libmsp430-usbapi-msp430f5529.a(usb.c.obj)
 .debug_line.text.usbStallEndpoint0
                0x00000000       0x23 ../uc-impl/usb-impl/libmsp430-usbapi-msp430f5529.a(usb.c.obj)
 .debug_line.text.usbClearOEP0ByteCount
                0x00000000       0x1d ../uc-impl/usb-impl/libmsp430-usbapi-msp430f5529.a(usb.c.obj)
 .debug_line.text.usbStallOEP0
                0x00000000       0x1d ../uc-impl/usb-impl/libmsp430-usbapi-msp430f5529.a(usb.c.obj)
 .debug_line.text.usbDisableInEndpointInterrupt
                0x00000000       0x23 ../uc-impl/usb-impl/libmsp430-usbapi-msp430f5529.a(usb.c.obj)
 .debug_line.text.usbRestoreInEndpointInterrupt
                0x00000000       0x1d ../uc-impl/usb-impl/libmsp430-usbapi-msp430f5529.a(usb.c.obj)
 .debug_line.text.usbDisableOutEndpointInterrupt
                0x00000000       0x23 ../uc-impl/usb-impl/libmsp430-usbapi-msp430f5529.a(usb.c.obj)
 .debug_line.text.usbRestoreOutEndpointInterrupt
                0x00000000       0x1d ../uc-impl/usb-impl/libmsp430-usbapi-msp430f5529.a(usb.c.obj)
 .text          0x00000000        0x0 ../uc-impl/usb-impl/libmsp430-usbapi-msp430f5529.a(usbdma.c.obj)
 .data          0x00000000        0x0 ../uc-impl/usb-impl/libmsp430-usbapi-msp430f5529.a(usbdma.c.obj)
 .bss           0x00000000        0x0 ../uc-impl/usb-impl/libmsp430-usbapi-msp430f5529.a(usbdma.c.obj)
 .text          0x00000000        0x0 ../uc-impl/usb-impl/libmsp430-usbapi-msp430f5529.a(usbcdc.c.obj)
 .data          0x00000000        0x0 ../uc-impl/usb-impl/libmsp430-usbapi-msp430f5529.a(usbcdc.c.obj)
 .bss           0x00000000        0x0 ../uc-impl/usb-impl/libmsp430-usbapi-msp430f5529.a(usbcdc.c.obj)
 .text.USBCDC_installSendHandler
                0x00000000        0xe ../uc-impl/usb-impl/libmsp430-usbapi-msp430f5529.a(usbcdc.c.obj)
 .text.USBCDC_uninstallSendHandler
                0x00000000        0xe ../uc-impl/usb-impl/libmsp430-usbapi-msp430f5529.a(usbcdc.c.obj)
 .text.USBCDC_installRecieveHandler
                0x00000000       0x12 ../uc-impl/usb-impl/libmsp430-usbapi-msp430f5529.a(usbcdc.c.obj)
 .text.USBCDC_uninstallRecieveHandler
                0x00000000       0x12 ../uc-impl/usb-impl/libmsp430-usbapi-msp430f5529.a(usbcdc.c.obj)
 .text.USBCDC_getInterfaceStatus_Send
                0x00000000       0x6a ../uc-impl/usb-impl/libmsp430-usbapi-msp430f5529.a(usbcdc.c.obj)
 .text.USBCDC_getInterfaceStatus_Recieve
                0x00000000       0x68 ../uc-impl/usb-impl/libmsp430-usbapi-msp430f5529.a(usbcdc.c.obj)
 .text.USBCDC_getInterfaceStatus
                0x00000000       0x62 ../uc-impl/usb-impl/libmsp430-usbapi-msp430f5529.a(usbcdc.c.obj)
 .text.USBCDC_sendChar
                0x00000000       0x56 ../uc-impl/usb-impl/libmsp430-usbapi-msp430f5529.a(usbcdc.c.obj)
 .text.USBCDC_abortSend
                0x00000000        0x4 ../uc-impl/usb-impl/libmsp430-usbapi-msp430f5529.a(usbcdc.c.obj)
 .text.USBCDC_recieveChar
                0x00000000       0x52 ../uc-impl/usb-impl/libmsp430-usbapi-msp430f5529.a(usbcdc.c.obj)
 .text.USBCDC_rejectData
                0x00000000       0x54 ../uc-impl/usb-impl/libmsp430-usbapi-msp430f5529.a(usbcdc.c.obj)
 .debug_line.text.USBCDC_installSendHandler
                0x00000000       0x1d ../uc-impl/usb-impl/libmsp430-usbapi-msp430f5529.a(usbcdc.c.obj)
 .debug_line.text.USBCDC_uninstallSendHandler
                0x00000000       0x1d ../uc-impl/usb-impl/libmsp430-usbapi-msp430f5529.a(usbcdc.c.obj)
 .debug_line.text.USBCDC_installRecieveHandler
                0x00000000       0x1d ../uc-impl/usb-impl/libmsp430-usbapi-msp430f5529.a(usbcdc.c.obj)
 .debug_line.text.USBCDC_uninstallRecieveHandler
                0x00000000       0x1d ../uc-impl/usb-impl/libmsp430-usbapi-msp430f5529.a(usbcdc.c.obj)
 .debug_line.text.USBCDC_getInterfaceStatus_Send
                0x00000000       0x5d ../uc-impl/usb-impl/libmsp430-usbapi-msp430f5529.a(usbcdc.c.obj)
 .debug_line.text.USBCDC_getInterfaceStatus_Recieve
                0x00000000       0x61 ../uc-impl/usb-impl/libmsp430-usbapi-msp430f5529.a(usbcdc.c.obj)
 .debug_line.text.USBCDC_getInterfaceStatus
                0x00000000       0x5d ../uc-impl/usb-impl/libmsp430-usbapi-msp430f5529.a(usbcdc.c.obj)
 .debug_line.text.USBCDC_sendChar
                0x00000000       0x4d ../uc-impl/usb-impl/libmsp430-usbapi-msp430f5529.a(usbcdc.c.obj)
 .debug_line.text.USBCDC_abortSend
                0x00000000       0x17 ../uc-impl/usb-impl/libmsp430-usbapi-msp430f5529.a(usbcdc.c.obj)
 .debug_line.text.USBCDC_recieveChar
                0x00000000       0x49 ../uc-impl/usb-impl/libmsp430-usbapi-msp430f5529.a(usbcdc.c.obj)
 .debug_line.text.USBCDC_rejectData
                0x00000000       0x57 ../uc-impl/usb-impl/libmsp430-usbapi-msp430f5529.a(usbcdc.c.obj)
 .text          0x00000000        0x0 ../uc-impl/usb-impl/libmsp430-usbapi-msp430f5529.a(usb_event_handlers.c.obj)
 .data          0x00000000        0x0 ../uc-impl/usb-impl/libmsp430-usbapi-msp430f5529.a(usb_event_handlers.c.obj)
 .bss           0x00000000        0x0 ../uc-impl/usb-impl/libmsp430-usbapi-msp430f5529.a(usb_event_handlers.c.obj)
 .text          0x00000000        0x0 ../uc-impl/usb-impl/libmsp430-usbapi-msp430f5529.a(descriptors.c.obj)
 .data          0x00000000        0x0 ../uc-impl/usb-impl/libmsp430-usbapi-msp430f5529.a(descriptors.c.obj)
 .bss           0x00000000        0x0 ../uc-impl/usb-impl/libmsp430-usbapi-msp430f5529.a(descriptors.c.obj)
 .text          0x00000000        0x0 /home/chintal/code/toolchains/packages/msp430/lib/libds-msp430f5529.a(avltree.c.obj)
 .data          0x00000000        0x0 /home/chintal/code/toolchains/packages/msp430/lib/libds-msp430f5529.a(avltree.c.obj)
 .bss           0x00000000        0x0 /home/chintal/code/toolchains/packages/msp430/lib/libds-msp430f5529.a(avltree.c.obj)
 .text._node_height.isra.0
                0x00000000       0x62 /home/chintal/code/toolchains/packages/msp430/lib/libds-msp430f5529.a(avltree.c.obj)
 .text._node_balance_factor.isra.1
                0x00000000       0x3a /home/chintal/code/toolchains/packages/msp430/lib/libds-msp430f5529.a(avltree.c.obj)
 .text._node_balance
                0x00000000       0xbc /home/chintal/code/toolchains/packages/msp430/lib/libds-msp430f5529.a(avltree.c.obj)
 .text.avlt_init_node
                0x00000000       0x16 /home/chintal/code/toolchains/packages/msp430/lib/libds-msp430f5529.a(avltree.c.obj)
 .text.avlt_insert_node
                0x00000000       0x66 /home/chintal/code/toolchains/packages/msp430/lib/libds-msp430f5529.a(avltree.c.obj)
 .debug_line.text._node_height.isra.0
                0x00000000       0x52 /home/chintal/code/toolchains/packages/msp430/lib/libds-msp430f5529.a(avltree.c.obj)
 .debug_line.text._node_balance_factor.isra.1
                0x00000000       0x35 /home/chintal/code/toolchains/packages/msp430/lib/libds-msp430f5529.a(avltree.c.obj)
 .debug_line.text._node_balance
                0x00000000       0xa2 /home/chintal/code/toolchains/packages/msp430/lib/libds-msp430f5529.a(avltree.c.obj)
 .debug_line.text.avlt_init_node
                0x00000000       0x34 /home/chintal/code/toolchains/packages/msp430/lib/libds-msp430f5529.a(avltree.c.obj)
 .debug_line.text.avlt_insert_node
                0x00000000       0x83 /home/chintal/code/toolchains/packages/msp430/lib/libds-msp430f5529.a(avltree.c.obj)
 .text          0x00000000        0x0 /home/chintal/code/toolchains/packages/msp430/lib/libbytebuf-msp430f5529.a(bytebuf.c.obj)
 .data          0x00000000        0x0 /home/chintal/code/toolchains/packages/msp430/lib/libbytebuf-msp430f5529.a(bytebuf.c.obj)
 .bss           0x00000000        0x0 /home/chintal/code/toolchains/packages/msp430/lib/libbytebuf-msp430f5529.a(bytebuf.c.obj)
 .text.bytebuf_cPushReqLock
                0x00000000       0x38 /home/chintal/code/toolchains/packages/msp430/lib/libbytebuf-msp430f5529.a(bytebuf.c.obj)
 .text.bytebuf_cPushReqBlindLock
                0x00000000       0x2c /home/chintal/code/toolchains/packages/msp430/lib/libbytebuf-msp430f5529.a(bytebuf.c.obj)
 .text.bytebuf_cPushRelinquishLock
                0x00000000       0x20 /home/chintal/code/toolchains/packages/msp430/lib/libbytebuf-msp430f5529.a(bytebuf.c.obj)
 .text.bytebuf_cWriteByte
                0x00000000       0x70 /home/chintal/code/toolchains/packages/msp430/lib/libbytebuf-msp430f5529.a(bytebuf.c.obj)
 .text.bytebuf_cPushByte
                0x00000000       0x54 /home/chintal/code/toolchains/packages/msp430/lib/libbytebuf-msp430f5529.a(bytebuf.c.obj)
 .text.bytebuf_cPushLen
                0x00000000       0x82 /home/chintal/code/toolchains/packages/msp430/lib/libbytebuf-msp430f5529.a(bytebuf.c.obj)
 .text.bytebuf_cPopByte
                0x00000000       0x30 /home/chintal/code/toolchains/packages/msp430/lib/libbytebuf-msp430f5529.a(bytebuf.c.obj)
 .text.bytebuf_cPopLen
                0x00000000       0x7a /home/chintal/code/toolchains/packages/msp430/lib/libbytebuf-msp430f5529.a(bytebuf.c.obj)
 .text.bytebuf_cPopChunk
                0x00000000       0x52 /home/chintal/code/toolchains/packages/msp430/lib/libbytebuf-msp430f5529.a(bytebuf.c.obj)
 .debug_line.text.bytebuf_cPushReqLock
                0x00000000       0x4c /home/chintal/code/toolchains/packages/msp430/lib/libbytebuf-msp430f5529.a(bytebuf.c.obj)
 .debug_line.text.bytebuf_cPushReqBlindLock
                0x00000000       0x45 /home/chintal/code/toolchains/packages/msp430/lib/libbytebuf-msp430f5529.a(bytebuf.c.obj)
 .debug_line.text.bytebuf_cPushRelinquishLock
                0x00000000       0x4d /home/chintal/code/toolchains/packages/msp430/lib/libbytebuf-msp430f5529.a(bytebuf.c.obj)
 .debug_line.text.bytebuf_cWriteByte
                0x00000000       0x69 /home/chintal/code/toolchains/packages/msp430/lib/libbytebuf-msp430f5529.a(bytebuf.c.obj)
 .debug_line.text.bytebuf_cPushByte
                0x00000000       0x65 /home/chintal/code/toolchains/packages/msp430/lib/libbytebuf-msp430f5529.a(bytebuf.c.obj)
 .debug_line.text.bytebuf_cPushLen
                0x00000000       0x8b /home/chintal/code/toolchains/packages/msp430/lib/libbytebuf-msp430f5529.a(bytebuf.c.obj)
 .debug_line.text.bytebuf_cPopByte
                0x00000000       0x3b /home/chintal/code/toolchains/packages/msp430/lib/libbytebuf-msp430f5529.a(bytebuf.c.obj)
 .debug_line.text.bytebuf_cPopLen
                0x00000000       0x6f /home/chintal/code/toolchains/packages/msp430/lib/libbytebuf-msp430f5529.a(bytebuf.c.obj)
 .debug_line.text.bytebuf_cPopChunk
                0x00000000       0x53 /home/chintal/code/toolchains/packages/msp430/lib/libbytebuf-msp430f5529.a(bytebuf.c.obj)
 .text          0x00000000        0x0 ../uc-impl/libhal-uc-timer-msp430f5529.a(timer_impl.c.obj)
 .data          0x00000000        0x0 ../uc-impl/libhal-uc-timer-msp430f5529.a(timer_impl.c.obj)
 .bss           0x00000000        0x0 ../uc-impl/libhal-uc-timer-msp430f5529.a(timer_impl.c.obj)
 .text.timer_A_init
                0x00000000       0x6e ../uc-impl/libhal-uc-timer-msp430f5529.a(timer_impl.c.obj)
 .rodata.timer_if
                0x00000000        0x8 ../uc-impl/libhal-uc-timer-msp430f5529.a(timer_impl.c.obj)
 .rodata.timer1_if
                0x00000000        0x4 ../uc-impl/libhal-uc-timer-msp430f5529.a(timer_impl.c.obj)
 .bss.timer1_state
                0x00000000        0x2 ../uc-impl/libhal-uc-timer-msp430f5529.a(timer_impl.c.obj)
 .rodata._timer1_hwif
                0x00000000        0x6 ../uc-impl/libhal-uc-timer-msp430f5529.a(timer_impl.c.obj)
 .debug_line.text.timer_A_init
                0x00000000       0x61 ../uc-impl/libhal-uc-timer-msp430f5529.a(timer_impl.c.obj)
 .text          0x00000000        0x0 /home/chintal/code/toolchains/packages/msp430/lib/libmsp430-driverlib-msp430f5529.a(dma.c.obj)
 .data          0x00000000        0x0 /home/chintal/code/toolchains/packages/msp430/lib/libmsp430-driverlib-msp430f5529.a(dma.c.obj)
 .bss           0x00000000        0x0 /home/chintal/code/toolchains/packages/msp430/lib/libmsp430-driverlib-msp430f5529.a(dma.c.obj)
 .text.DMA_getTransferSize
                0x00000000        0xa /home/chintal/code/toolchains/packages/msp430/lib/libmsp430-driverlib-msp430f5529.a(dma.c.obj)
 .text.DMA_enableInterrupt
                0x00000000        0xa /home/chintal/code/toolchains/packages/msp430/lib/libmsp430-driverlib-msp430f5529.a(dma.c.obj)
 .text.DMA_disableInterrupt
                0x00000000        0xa /home/chintal/code/toolchains/packages/msp430/lib/libmsp430-driverlib-msp430f5529.a(dma.c.obj)
 .text.DMA_clearInterrupt
                0x00000000        0xa /home/chintal/code/toolchains/packages/msp430/lib/libmsp430-driverlib-msp430f5529.a(dma.c.obj)
 .text.DMA_getNMIAbortStatus
                0x00000000        0xc /home/chintal/code/toolchains/packages/msp430/lib/libmsp430-driverlib-msp430f5529.a(dma.c.obj)
 .text.DMA_clearNMIAbort
                0x00000000        0xa /home/chintal/code/toolchains/packages/msp430/lib/libmsp430-driverlib-msp430f5529.a(dma.c.obj)
 .text.DMA_enableRoundRobinPriority
                0x00000000        0x6 /home/chintal/code/toolchains/packages/msp430/lib/libmsp430-driverlib-msp430f5529.a(dma.c.obj)
 .text.DMA_disableRoundRobinPriority
                0x00000000        0x6 /home/chintal/code/toolchains/packages/msp430/lib/libmsp430-driverlib-msp430f5529.a(dma.c.obj)
 .text.DMA_enableNMIAbort
                0x00000000        0x6 /home/chintal/code/toolchains/packages/msp430/lib/libmsp430-driverlib-msp430f5529.a(dma.c.obj)
 .text.DMA_disableNMIAbort
                0x00000000        0x6 /home/chintal/code/toolchains/packages/msp430/lib/libmsp430-driverlib-msp430f5529.a(dma.c.obj)
 .debug_line.text.DMA_getTransferSize
                0x00000000       0x17 /home/chintal/code/toolchains/packages/msp430/lib/libmsp430-driverlib-msp430f5529.a(dma.c.obj)
 .debug_line.text.DMA_enableInterrupt
                0x00000000       0x1d /home/chintal/code/toolchains/packages/msp430/lib/libmsp430-driverlib-msp430f5529.a(dma.c.obj)
 .debug_line.text.DMA_disableInterrupt
                0x00000000       0x1d /home/chintal/code/toolchains/packages/msp430/lib/libmsp430-driverlib-msp430f5529.a(dma.c.obj)
 .debug_line.text.DMA_clearInterrupt
                0x00000000       0x1d /home/chintal/code/toolchains/packages/msp430/lib/libmsp430-driverlib-msp430f5529.a(dma.c.obj)
 .debug_line.text.DMA_getNMIAbortStatus
                0x00000000       0x17 /home/chintal/code/toolchains/packages/msp430/lib/libmsp430-driverlib-msp430f5529.a(dma.c.obj)
 .debug_line.text.DMA_clearNMIAbort
                0x00000000       0x1d /home/chintal/code/toolchains/packages/msp430/lib/libmsp430-driverlib-msp430f5529.a(dma.c.obj)
 .debug_line.text.DMA_enableRoundRobinPriority
                0x00000000       0x1d /home/chintal/code/toolchains/packages/msp430/lib/libmsp430-driverlib-msp430f5529.a(dma.c.obj)
 .debug_line.text.DMA_disableRoundRobinPriority
                0x00000000       0x1d /home/chintal/code/toolchains/packages/msp430/lib/libmsp430-driverlib-msp430f5529.a(dma.c.obj)
 .debug_line.text.DMA_enableNMIAbort
                0x00000000       0x1d /home/chintal/code/toolchains/packages/msp430/lib/libmsp430-driverlib-msp430f5529.a(dma.c.obj)
 .debug_line.text.DMA_disableNMIAbort
                0x00000000       0x1d /home/chintal/code/toolchains/packages/msp430/lib/libmsp430-driverlib-msp430f5529.a(dma.c.obj)
 .text          0x00000000        0x0 /home/chintal/code/toolchains/packages/msp430/lib/libmsp430-driverlib-msp430f5529.a(tlv.c.obj)
 .data          0x00000000        0x0 /home/chintal/code/toolchains/packages/msp430/lib/libmsp430-driverlib-msp430f5529.a(tlv.c.obj)
 .bss           0x00000000        0x0 /home/chintal/code/toolchains/packages/msp430/lib/libmsp430-driverlib-msp430f5529.a(tlv.c.obj)
 .text.TLV_getDeviceType
                0x00000000        0x6 /home/chintal/code/toolchains/packages/msp430/lib/libmsp430-driverlib-msp430f5529.a(tlv.c.obj)
 .text.TLV_getMemory
                0x00000000       0x62 /home/chintal/code/toolchains/packages/msp430/lib/libmsp430-driverlib-msp430f5529.a(tlv.c.obj)
 .text.TLV_getPeripheral
                0x00000000       0x7e /home/chintal/code/toolchains/packages/msp430/lib/libmsp430-driverlib-msp430f5529.a(tlv.c.obj)
 .text.TLV_getInterrupt
                0x00000000       0x72 /home/chintal/code/toolchains/packages/msp430/lib/libmsp430-driverlib-msp430f5529.a(tlv.c.obj)
 .debug_line.text.TLV_getDeviceType
                0x00000000       0x17 /home/chintal/code/toolchains/packages/msp430/lib/libmsp430-driverlib-msp430f5529.a(tlv.c.obj)
 .debug_line.text.TLV_getMemory
                0x00000000       0x69 /home/chintal/code/toolchains/packages/msp430/lib/libmsp430-driverlib-msp430f5529.a(tlv.c.obj)
 .debug_line.text.TLV_getPeripheral
                0x00000000       0x75 /home/chintal/code/toolchains/packages/msp430/lib/libmsp430-driverlib-msp430f5529.a(tlv.c.obj)
 .debug_line.text.TLV_getInterrupt
                0x00000000       0x69 /home/chintal/code/toolchains/packages/msp430/lib/libmsp430-driverlib-msp430f5529.a(tlv.c.obj)
 .text          0x00000000        0x0 /home/chintal/code/toolchains/packages/msp430/lib/libmsp430-driverlib-msp430f5529.a(pmm.c.obj)
 .data          0x00000000        0x0 /home/chintal/code/toolchains/packages/msp430/lib/libmsp430-driverlib-msp430f5529.a(pmm.c.obj)
 .bss           0x00000000        0x0 /home/chintal/code/toolchains/packages/msp430/lib/libmsp430-driverlib-msp430f5529.a(pmm.c.obj)
 .text.PMM_enableSvsL
                0x00000000       0x16 /home/chintal/code/toolchains/packages/msp430/lib/libmsp430-driverlib-msp430f5529.a(pmm.c.obj)
 .text.PMM_disableSvsL
                0x00000000       0x16 /home/chintal/code/toolchains/packages/msp430/lib/libmsp430-driverlib-msp430f5529.a(pmm.c.obj)
 .text.PMM_enableSvmL
                0x00000000       0x16 /home/chintal/code/toolchains/packages/msp430/lib/libmsp430-driverlib-msp430f5529.a(pmm.c.obj)
 .text.PMM_disableSvmL
                0x00000000       0x16 /home/chintal/code/toolchains/packages/msp430/lib/libmsp430-driverlib-msp430f5529.a(pmm.c.obj)
 .text.PMM_enableSvsH
                0x00000000       0x16 /home/chintal/code/toolchains/packages/msp430/lib/libmsp430-driverlib-msp430f5529.a(pmm.c.obj)
 .text.PMM_disableSvsH
                0x00000000       0x16 /home/chintal/code/toolchains/packages/msp430/lib/libmsp430-driverlib-msp430f5529.a(pmm.c.obj)
 .text.PMM_enableSvmH
                0x00000000       0x16 /home/chintal/code/toolchains/packages/msp430/lib/libmsp430-driverlib-msp430f5529.a(pmm.c.obj)
 .text.PMM_disableSvmH
                0x00000000       0x16 /home/chintal/code/toolchains/packages/msp430/lib/libmsp430-driverlib-msp430f5529.a(pmm.c.obj)
 .text.PMM_enableSvsLSvmL
                0x00000000       0x16 /home/chintal/code/toolchains/packages/msp430/lib/libmsp430-driverlib-msp430f5529.a(pmm.c.obj)
 .text.PMM_disableSvsLSvmL
                0x00000000       0x16 /home/chintal/code/toolchains/packages/msp430/lib/libmsp430-driverlib-msp430f5529.a(pmm.c.obj)
 .text.PMM_enableSvsHSvmH
                0x00000000       0x16 /home/chintal/code/toolchains/packages/msp430/lib/libmsp430-driverlib-msp430f5529.a(pmm.c.obj)
 .text.PMM_disableSvsHSvmH
                0x00000000       0x16 /home/chintal/code/toolchains/packages/msp430/lib/libmsp430-driverlib-msp430f5529.a(pmm.c.obj)
 .text.PMM_enableSvsLReset
                0x00000000       0x16 /home/chintal/code/toolchains/packages/msp430/lib/libmsp430-driverlib-msp430f5529.a(pmm.c.obj)
 .text.PMM_disableSvsLReset
                0x00000000       0x16 /home/chintal/code/toolchains/packages/msp430/lib/libmsp430-driverlib-msp430f5529.a(pmm.c.obj)
 .text.PMM_enableSvmLInterrupt
                0x00000000       0x14 /home/chintal/code/toolchains/packages/msp430/lib/libmsp430-driverlib-msp430f5529.a(pmm.c.obj)
 .text.PMM_disableSvmLInterrupt
                0x00000000       0x14 /home/chintal/code/toolchains/packages/msp430/lib/libmsp430-driverlib-msp430f5529.a(pmm.c.obj)
 .text.PMM_enableSvsHReset
                0x00000000       0x16 /home/chintal/code/toolchains/packages/msp430/lib/libmsp430-driverlib-msp430f5529.a(pmm.c.obj)
 .text.PMM_disableSvsHReset
                0x00000000       0x16 /home/chintal/code/toolchains/packages/msp430/lib/libmsp430-driverlib-msp430f5529.a(pmm.c.obj)
 .text.PMM_enableSvmHInterrupt
                0x00000000       0x16 /home/chintal/code/toolchains/packages/msp430/lib/libmsp430-driverlib-msp430f5529.a(pmm.c.obj)
 .text.PMM_disableSvmHInterrupt
                0x00000000       0x16 /home/chintal/code/toolchains/packages/msp430/lib/libmsp430-driverlib-msp430f5529.a(pmm.c.obj)
 .text.PMM_clearPMMIFGS
                0x00000000       0x14 /home/chintal/code/toolchains/packages/msp430/lib/libmsp430-driverlib-msp430f5529.a(pmm.c.obj)
 .text.PMM_enableSvsLInLPMFastWake
                0x00000000       0x20 /home/chintal/code/toolchains/packages/msp430/lib/libmsp430-driverlib-msp430f5529.a(pmm.c.obj)
 .text.PMM_enableSvsLInLPMSlowWake
                0x00000000       0x20 /home/chintal/code/toolchains/packages/msp430/lib/libmsp430-driverlib-msp430f5529.a(pmm.c.obj)
 .text.PMM_disableSvsLInLPMFastWake
                0x00000000       0x20 /home/chintal/code/toolchains/packages/msp430/lib/libmsp430-driverlib-msp430f5529.a(pmm.c.obj)
 .text.PMM_disableSvsLInLPMSlowWake
                0x00000000       0x16 /home/chintal/code/toolchains/packages/msp430/lib/libmsp430-driverlib-msp430f5529.a(pmm.c.obj)
 .text.PMM_enableSvsHInLPMNormPerf
                0x00000000       0x20 /home/chintal/code/toolchains/packages/msp430/lib/libmsp430-driverlib-msp430f5529.a(pmm.c.obj)
 .text.PMM_enableSvsHInLPMFullPerf
                0x00000000       0x20 /home/chintal/code/toolchains/packages/msp430/lib/libmsp430-driverlib-msp430f5529.a(pmm.c.obj)
 .text.PMM_disableSvsHInLPMNormPerf
                0x00000000       0x16 /home/chintal/code/toolchains/packages/msp430/lib/libmsp430-driverlib-msp430f5529.a(pmm.c.obj)
 .text.PMM_disableSvsHInLPMFullPerf
                0x00000000       0x20 /home/chintal/code/toolchains/packages/msp430/lib/libmsp430-driverlib-msp430f5529.a(pmm.c.obj)
 .text.PMM_optimizeSvsLInLPMFastWake
                0x00000000       0x16 /home/chintal/code/toolchains/packages/msp430/lib/libmsp430-driverlib-msp430f5529.a(pmm.c.obj)
 .text.PMM_optimizeSvsHInLPMFullPerf
                0x00000000       0x16 /home/chintal/code/toolchains/packages/msp430/lib/libmsp430-driverlib-msp430f5529.a(pmm.c.obj)
 .text.PMM_getInterruptStatus
                0x00000000        0x6 /home/chintal/code/toolchains/packages/msp430/lib/libmsp430-driverlib-msp430f5529.a(pmm.c.obj)
 .debug_line.text.PMM_enableSvsL
                0x00000000       0x28 /home/chintal/code/toolchains/packages/msp430/lib/libmsp430-driverlib-msp430f5529.a(pmm.c.obj)
 .debug_line.text.PMM_disableSvsL
                0x00000000       0x28 /home/chintal/code/toolchains/packages/msp430/lib/libmsp430-driverlib-msp430f5529.a(pmm.c.obj)
 .debug_line.text.PMM_enableSvmL
                0x00000000       0x29 /home/chintal/code/toolchains/packages/msp430/lib/libmsp430-driverlib-msp430f5529.a(pmm.c.obj)
 .debug_line.text.PMM_disableSvmL
                0x00000000       0x29 /home/chintal/code/toolchains/packages/msp430/lib/libmsp430-driverlib-msp430f5529.a(pmm.c.obj)
 .debug_line.text.PMM_enableSvsH
                0x00000000       0x29 /home/chintal/code/toolchains/packages/msp430/lib/libmsp430-driverlib-msp430f5529.a(pmm.c.obj)
 .debug_line.text.PMM_disableSvsH
                0x00000000       0x29 /home/chintal/code/toolchains/packages/msp430/lib/libmsp430-driverlib-msp430f5529.a(pmm.c.obj)
 .debug_line.text.PMM_enableSvmH
                0x00000000       0x29 /home/chintal/code/toolchains/packages/msp430/lib/libmsp430-driverlib-msp430f5529.a(pmm.c.obj)
 .debug_line.text.PMM_disableSvmH
                0x00000000       0x29 /home/chintal/code/toolchains/packages/msp430/lib/libmsp430-driverlib-msp430f5529.a(pmm.c.obj)
 .debug_line.text.PMM_enableSvsLSvmL
                0x00000000       0x29 /home/chintal/code/toolchains/packages/msp430/lib/libmsp430-driverlib-msp430f5529.a(pmm.c.obj)
 .debug_line.text.PMM_disableSvsLSvmL
                0x00000000       0x29 /home/chintal/code/toolchains/packages/msp430/lib/libmsp430-driverlib-msp430f5529.a(pmm.c.obj)
 .debug_line.text.PMM_enableSvsHSvmH
                0x00000000       0x29 /home/chintal/code/toolchains/packages/msp430/lib/libmsp430-driverlib-msp430f5529.a(pmm.c.obj)
 .debug_line.text.PMM_disableSvsHSvmH
                0x00000000       0x29 /home/chintal/code/toolchains/packages/msp430/lib/libmsp430-driverlib-msp430f5529.a(pmm.c.obj)
 .debug_line.text.PMM_enableSvsLReset
                0x00000000       0x29 /home/chintal/code/toolchains/packages/msp430/lib/libmsp430-driverlib-msp430f5529.a(pmm.c.obj)
 .debug_line.text.PMM_disableSvsLReset
                0x00000000       0x29 /home/chintal/code/toolchains/packages/msp430/lib/libmsp430-driverlib-msp430f5529.a(pmm.c.obj)
 .debug_line.text.PMM_enableSvmLInterrupt
                0x00000000       0x29 /home/chintal/code/toolchains/packages/msp430/lib/libmsp430-driverlib-msp430f5529.a(pmm.c.obj)
 .debug_line.text.PMM_disableSvmLInterrupt
                0x00000000       0x29 /home/chintal/code/toolchains/packages/msp430/lib/libmsp430-driverlib-msp430f5529.a(pmm.c.obj)
 .debug_line.text.PMM_enableSvsHReset
                0x00000000       0x29 /home/chintal/code/toolchains/packages/msp430/lib/libmsp430-driverlib-msp430f5529.a(pmm.c.obj)
 .debug_line.text.PMM_disableSvsHReset
                0x00000000       0x29 /home/chintal/code/toolchains/packages/msp430/lib/libmsp430-driverlib-msp430f5529.a(pmm.c.obj)
 .debug_line.text.PMM_enableSvmHInterrupt
                0x00000000       0x29 /home/chintal/code/toolchains/packages/msp430/lib/libmsp430-driverlib-msp430f5529.a(pmm.c.obj)
 .debug_line.text.PMM_disableSvmHInterrupt
                0x00000000       0x29 /home/chintal/code/toolchains/packages/msp430/lib/libmsp430-driverlib-msp430f5529.a(pmm.c.obj)
 .debug_line.text.PMM_clearPMMIFGS
                0x00000000       0x29 /home/chintal/code/toolchains/packages/msp430/lib/libmsp430-driverlib-msp430f5529.a(pmm.c.obj)
 .debug_line.text.PMM_enableSvsLInLPMFastWake
                0x00000000       0x2f /home/chintal/code/toolchains/packages/msp430/lib/libmsp430-driverlib-msp430f5529.a(pmm.c.obj)
 .debug_line.text.PMM_enableSvsLInLPMSlowWake
                0x00000000       0x2f /home/chintal/code/toolchains/packages/msp430/lib/libmsp430-driverlib-msp430f5529.a(pmm.c.obj)
 .debug_line.text.PMM_disableSvsLInLPMFastWake
                0x00000000       0x2f /home/chintal/code/toolchains/packages/msp430/lib/libmsp430-driverlib-msp430f5529.a(pmm.c.obj)
 .debug_line.text.PMM_disableSvsLInLPMSlowWake
                0x00000000       0x29 /home/chintal/code/toolchains/packages/msp430/lib/libmsp430-driverlib-msp430f5529.a(pmm.c.obj)
 .debug_line.text.PMM_enableSvsHInLPMNormPerf
                0x00000000       0x2f /home/chintal/code/toolchains/packages/msp430/lib/libmsp430-driverlib-msp430f5529.a(pmm.c.obj)
 .debug_line.text.PMM_enableSvsHInLPMFullPerf
                0x00000000       0x2f /home/chintal/code/toolchains/packages/msp430/lib/libmsp430-driverlib-msp430f5529.a(pmm.c.obj)
 .debug_line.text.PMM_disableSvsHInLPMNormPerf
                0x00000000       0x29 /home/chintal/code/toolchains/packages/msp430/lib/libmsp430-driverlib-msp430f5529.a(pmm.c.obj)
 .debug_line.text.PMM_disableSvsHInLPMFullPerf
                0x00000000       0x2f /home/chintal/code/toolchains/packages/msp430/lib/libmsp430-driverlib-msp430f5529.a(pmm.c.obj)
 .debug_line.text.PMM_optimizeSvsLInLPMFastWake
                0x00000000       0x29 /home/chintal/code/toolchains/packages/msp430/lib/libmsp430-driverlib-msp430f5529.a(pmm.c.obj)
 .debug_line.text.PMM_optimizeSvsHInLPMFullPerf
                0x00000000       0x29 /home/chintal/code/toolchains/packages/msp430/lib/libmsp430-driverlib-msp430f5529.a(pmm.c.obj)
 .debug_line.text.PMM_getInterruptStatus
                0x00000000       0x17 /home/chintal/code/toolchains/packages/msp430/lib/libmsp430-driverlib-msp430f5529.a(pmm.c.obj)
 .text          0x00000000        0x0 /home/chintal/code/toolchains/packages/msp430/lib/libmsp430-driverlib-msp430f5529.a(ucs.c.obj)
 .data          0x00000000        0x0 /home/chintal/code/toolchains/packages/msp430/lib/libmsp430-driverlib-msp430f5529.a(ucs.c.obj)
 .bss           0x00000000        0x0 /home/chintal/code/toolchains/packages/msp430/lib/libmsp430-driverlib-msp430f5529.a(ucs.c.obj)
 .text.privateUCSSourceClockFromDCO
                0x00000000      0x17c /home/chintal/code/toolchains/packages/msp430/lib/libmsp430-driverlib-msp430f5529.a(ucs.c.obj)
 .text.privateUCSComputeCLKFrequency
                0x00000000       0xf6 /home/chintal/code/toolchains/packages/msp430/lib/libmsp430-driverlib-msp430f5529.a(ucs.c.obj)
 .text.UCS_turnOnLFXT1
                0x00000000       0x3c /home/chintal/code/toolchains/packages/msp430/lib/libmsp430-driverlib-msp430f5529.a(ucs.c.obj)
 .text.UCS_turnOnHFXT1
                0x00000000       0x3c /home/chintal/code/toolchains/packages/msp430/lib/libmsp430-driverlib-msp430f5529.a(ucs.c.obj)
 .text.UCS_bypassXT1
                0x00000000       0x40 /home/chintal/code/toolchains/packages/msp430/lib/libmsp430-driverlib-msp430f5529.a(ucs.c.obj)
 .text.UCS_turnOnHFXT1WithTimeout
                0x00000000       0x52 /home/chintal/code/toolchains/packages/msp430/lib/libmsp430-driverlib-msp430f5529.a(ucs.c.obj)
 .text.UCS_bypassXT1WithTimeout
                0x00000000       0x5c /home/chintal/code/toolchains/packages/msp430/lib/libmsp430-driverlib-msp430f5529.a(ucs.c.obj)
 .text.UCS_turnOffXT1
                0x00000000        0x6 /home/chintal/code/toolchains/packages/msp430/lib/libmsp430-driverlib-msp430f5529.a(ucs.c.obj)
 .text.UCS_turnOnXT2
                0x00000000       0x38 /home/chintal/code/toolchains/packages/msp430/lib/libmsp430-driverlib-msp430f5529.a(ucs.c.obj)
 .text.UCS_bypassXT2
                0x00000000       0x22 /home/chintal/code/toolchains/packages/msp430/lib/libmsp430-driverlib-msp430f5529.a(ucs.c.obj)
 .text.UCS_bypassXT2WithTimeout
                0x00000000       0x32 /home/chintal/code/toolchains/packages/msp430/lib/libmsp430-driverlib-msp430f5529.a(ucs.c.obj)
 .text.UCS_turnOffXT2
                0x00000000        0x8 /home/chintal/code/toolchains/packages/msp430/lib/libmsp430-driverlib-msp430f5529.a(ucs.c.obj)
 .text.UCS_disableClockRequest
                0x00000000        0x6 /home/chintal/code/toolchains/packages/msp430/lib/libmsp430-driverlib-msp430f5529.a(ucs.c.obj)
 .text.UCS_getFaultFlagStatus
                0x00000000        0x6 /home/chintal/code/toolchains/packages/msp430/lib/libmsp430-driverlib-msp430f5529.a(ucs.c.obj)
 .text.UCS_clearFaultFlag
                0x00000000        0x6 /home/chintal/code/toolchains/packages/msp430/lib/libmsp430-driverlib-msp430f5529.a(ucs.c.obj)
 .text.UCS_turnOffSMCLK
                0x00000000        0x6 /home/chintal/code/toolchains/packages/msp430/lib/libmsp430-driverlib-msp430f5529.a(ucs.c.obj)
 .text.UCS_turnOnSMCLK
                0x00000000        0x6 /home/chintal/code/toolchains/packages/msp430/lib/libmsp430-driverlib-msp430f5529.a(ucs.c.obj)
 .text.UCS_getACLK
                0x00000000       0x1e /home/chintal/code/toolchains/packages/msp430/lib/libmsp430-driverlib-msp430f5529.a(ucs.c.obj)
 .text.UCS_getSMCLK
                0x00000000       0x1e /home/chintal/code/toolchains/packages/msp430/lib/libmsp430-driverlib-msp430f5529.a(ucs.c.obj)
 .text.UCS_getMCLK
                0x00000000       0x16 /home/chintal/code/toolchains/packages/msp430/lib/libmsp430-driverlib-msp430f5529.a(ucs.c.obj)
 .text.UCS_clearAllOscFlagsWithTimeout
                0x00000000       0x28 /home/chintal/code/toolchains/packages/msp430/lib/libmsp430-driverlib-msp430f5529.a(ucs.c.obj)
 .debug_line.text.privateUCSSourceClockFromDCO
                0x00000000       0xf3 /home/chintal/code/toolchains/packages/msp430/lib/libmsp430-driverlib-msp430f5529.a(ucs.c.obj)
 .debug_line.text.privateUCSComputeCLKFrequency
                0x00000000       0xe9 /home/chintal/code/toolchains/packages/msp430/lib/libmsp430-driverlib-msp430f5529.a(ucs.c.obj)
 .debug_line.text.UCS_turnOnLFXT1
                0x00000000       0x53 /home/chintal/code/toolchains/packages/msp430/lib/libmsp430-driverlib-msp430f5529.a(ucs.c.obj)
 .debug_line.text.UCS_turnOnHFXT1
                0x00000000       0x53 /home/chintal/code/toolchains/packages/msp430/lib/libmsp430-driverlib-msp430f5529.a(ucs.c.obj)
 .debug_line.text.UCS_bypassXT1
                0x00000000       0x59 /home/chintal/code/toolchains/packages/msp430/lib/libmsp430-driverlib-msp430f5529.a(ucs.c.obj)
 .debug_line.text.UCS_turnOnHFXT1WithTimeout
                0x00000000       0x75 /home/chintal/code/toolchains/packages/msp430/lib/libmsp430-driverlib-msp430f5529.a(ucs.c.obj)
 .debug_line.text.UCS_bypassXT1WithTimeout
                0x00000000       0x91 /home/chintal/code/toolchains/packages/msp430/lib/libmsp430-driverlib-msp430f5529.a(ucs.c.obj)
 .debug_line.text.UCS_turnOffXT1
                0x00000000       0x1d /home/chintal/code/toolchains/packages/msp430/lib/libmsp430-driverlib-msp430f5529.a(ucs.c.obj)
 .debug_line.text.UCS_turnOnXT2
                0x00000000       0x4d /home/chintal/code/toolchains/packages/msp430/lib/libmsp430-driverlib-msp430f5529.a(ucs.c.obj)
 .debug_line.text.UCS_bypassXT2
                0x00000000       0x3b /home/chintal/code/toolchains/packages/msp430/lib/libmsp430-driverlib-msp430f5529.a(ucs.c.obj)
 .debug_line.text.UCS_bypassXT2WithTimeout
                0x00000000       0x51 /home/chintal/code/toolchains/packages/msp430/lib/libmsp430-driverlib-msp430f5529.a(ucs.c.obj)
 .debug_line.text.UCS_turnOffXT2
                0x00000000       0x1d /home/chintal/code/toolchains/packages/msp430/lib/libmsp430-driverlib-msp430f5529.a(ucs.c.obj)
 .debug_line.text.UCS_disableClockRequest
                0x00000000       0x1d /home/chintal/code/toolchains/packages/msp430/lib/libmsp430-driverlib-msp430f5529.a(ucs.c.obj)
 .debug_line.text.UCS_getFaultFlagStatus
                0x00000000       0x17 /home/chintal/code/toolchains/packages/msp430/lib/libmsp430-driverlib-msp430f5529.a(ucs.c.obj)
 .debug_line.text.UCS_clearFaultFlag
                0x00000000       0x1d /home/chintal/code/toolchains/packages/msp430/lib/libmsp430-driverlib-msp430f5529.a(ucs.c.obj)
 .debug_line.text.UCS_turnOffSMCLK
                0x00000000       0x1d /home/chintal/code/toolchains/packages/msp430/lib/libmsp430-driverlib-msp430f5529.a(ucs.c.obj)
 .debug_line.text.UCS_turnOnSMCLK
                0x00000000       0x1d /home/chintal/code/toolchains/packages/msp430/lib/libmsp430-driverlib-msp430f5529.a(ucs.c.obj)
 .debug_line.text.UCS_getACLK
                0x00000000       0x29 /home/chintal/code/toolchains/packages/msp430/lib/libmsp430-driverlib-msp430f5529.a(ucs.c.obj)
 .debug_line.text.UCS_getSMCLK
                0x00000000       0x29 /home/chintal/code/toolchains/packages/msp430/lib/libmsp430-driverlib-msp430f5529.a(ucs.c.obj)
 .debug_line.text.UCS_getMCLK
                0x00000000       0x23 /home/chintal/code/toolchains/packages/msp430/lib/libmsp430-driverlib-msp430f5529.a(ucs.c.obj)
 .debug_line.text.UCS_clearAllOscFlagsWithTimeout
                0x00000000       0x45 /home/chintal/code/toolchains/packages/msp430/lib/libmsp430-driverlib-msp430f5529.a(ucs.c.obj)
 .text          0x00000000        0x0 /home/chintal/code/toolchains/packages/msp430/lib/libmsp430-driverlib-msp430f5529.a(sfr.c.obj)
 .data          0x00000000        0x0 /home/chintal/code/toolchains/packages/msp430/lib/libmsp430-driverlib-msp430f5529.a(sfr.c.obj)
 .bss           0x00000000        0x0 /home/chintal/code/toolchains/packages/msp430/lib/libmsp430-driverlib-msp430f5529.a(sfr.c.obj)
 .text.SFR_disableInterrupt
                0x00000000        0x6 /home/chintal/code/toolchains/packages/msp430/lib/libmsp430-driverlib-msp430f5529.a(sfr.c.obj)
 .text.SFR_getInterruptStatus
                0x00000000        0x6 /home/chintal/code/toolchains/packages/msp430/lib/libmsp430-driverlib-msp430f5529.a(sfr.c.obj)
 .text.SFR_setResetPinPullResistor
                0x00000000       0x10 /home/chintal/code/toolchains/packages/msp430/lib/libmsp430-driverlib-msp430f5529.a(sfr.c.obj)
 .text.SFR_setNMIEdge
                0x00000000        0xe /home/chintal/code/toolchains/packages/msp430/lib/libmsp430-driverlib-msp430f5529.a(sfr.c.obj)
 .text.SFR_setResetNMIPinFunction
                0x00000000        0xe /home/chintal/code/toolchains/packages/msp430/lib/libmsp430-driverlib-msp430f5529.a(sfr.c.obj)
 .debug_line.text.SFR_disableInterrupt
                0x00000000       0x1c /home/chintal/code/toolchains/packages/msp430/lib/libmsp430-driverlib-msp430f5529.a(sfr.c.obj)
 .debug_line.text.SFR_getInterruptStatus
                0x00000000       0x16 /home/chintal/code/toolchains/packages/msp430/lib/libmsp430-driverlib-msp430f5529.a(sfr.c.obj)
 .debug_line.text.SFR_setResetPinPullResistor
                0x00000000       0x23 /home/chintal/code/toolchains/packages/msp430/lib/libmsp430-driverlib-msp430f5529.a(sfr.c.obj)
 .debug_line.text.SFR_setNMIEdge
                0x00000000       0x23 /home/chintal/code/toolchains/packages/msp430/lib/libmsp430-driverlib-msp430f5529.a(sfr.c.obj)
 .debug_line.text.SFR_setResetNMIPinFunction
                0x00000000       0x23 /home/chintal/code/toolchains/packages/msp430/lib/libmsp430-driverlib-msp430f5529.a(sfr.c.obj)
 .text          0x00000000        0x0 /home/chintal/code/toolchains/packages/msp430/lib/libmsp430-driverlib-msp430f5529.a(gpio.c.obj)
 .data          0x00000000        0x0 /home/chintal/code/toolchains/packages/msp430/lib/libmsp430-driverlib-msp430f5529.a(gpio.c.obj)
 .bss           0x00000000        0x0 /home/chintal/code/toolchains/packages/msp430/lib/libmsp430-driverlib-msp430f5529.a(gpio.c.obj)
 .text.GPIO_setAsInputPin
                0x00000000       0x24 /home/chintal/code/toolchains/packages/msp430/lib/libmsp430-driverlib-msp430f5529.a(gpio.c.obj)
 .text.GPIO_setAsInputPinWithPullDownResistor
                0x00000000       0x2a /home/chintal/code/toolchains/packages/msp430/lib/libmsp430-driverlib-msp430f5529.a(gpio.c.obj)
 .text.GPIO_setAsInputPinWithPullUpResistor
                0x00000000       0x2a /home/chintal/code/toolchains/packages/msp430/lib/libmsp430-driverlib-msp430f5529.a(gpio.c.obj)
 .text.GPIO_enableInterrupt
                0x00000000       0x1a /home/chintal/code/toolchains/packages/msp430/lib/libmsp430-driverlib-msp430f5529.a(gpio.c.obj)
 .text.GPIO_disableInterrupt
                0x00000000       0x1a /home/chintal/code/toolchains/packages/msp430/lib/libmsp430-driverlib-msp430f5529.a(gpio.c.obj)
 .text.GPIO_getInterruptStatus
                0x00000000       0x20 /home/chintal/code/toolchains/packages/msp430/lib/libmsp430-driverlib-msp430f5529.a(gpio.c.obj)
 .text.GPIO_clearInterrupt
                0x00000000       0x1a /home/chintal/code/toolchains/packages/msp430/lib/libmsp430-driverlib-msp430f5529.a(gpio.c.obj)
 .text.GPIO_selectInterruptEdge
                0x00000000       0x28 /home/chintal/code/toolchains/packages/msp430/lib/libmsp430-driverlib-msp430f5529.a(gpio.c.obj)
 .text.GPIO_setDriveStrength
                0x00000000       0x28 /home/chintal/code/toolchains/packages/msp430/lib/libmsp430-driverlib-msp430f5529.a(gpio.c.obj)
 .debug_line.text.GPIO_setAsInputPin
                0x00000000       0x3b /home/chintal/code/toolchains/packages/msp430/lib/libmsp430-driverlib-msp430f5529.a(gpio.c.obj)
 .debug_line.text.GPIO_setAsInputPinWithPullDownResistor
                0x00000000       0x41 /home/chintal/code/toolchains/packages/msp430/lib/libmsp430-driverlib-msp430f5529.a(gpio.c.obj)
 .debug_line.text.GPIO_setAsInputPinWithPullUpResistor
                0x00000000       0x41 /home/chintal/code/toolchains/packages/msp430/lib/libmsp430-driverlib-msp430f5529.a(gpio.c.obj)
 .debug_line.text.GPIO_enableInterrupt
                0x00000000       0x2f /home/chintal/code/toolchains/packages/msp430/lib/libmsp430-driverlib-msp430f5529.a(gpio.c.obj)
 .debug_line.text.GPIO_disableInterrupt
                0x00000000       0x2f /home/chintal/code/toolchains/packages/msp430/lib/libmsp430-driverlib-msp430f5529.a(gpio.c.obj)
 .debug_line.text.GPIO_getInterruptStatus
                0x00000000       0x35 /home/chintal/code/toolchains/packages/msp430/lib/libmsp430-driverlib-msp430f5529.a(gpio.c.obj)
 .debug_line.text.GPIO_clearInterrupt
                0x00000000       0x2f /home/chintal/code/toolchains/packages/msp430/lib/libmsp430-driverlib-msp430f5529.a(gpio.c.obj)
 .debug_line.text.GPIO_selectInterruptEdge
                0x00000000       0x41 /home/chintal/code/toolchains/packages/msp430/lib/libmsp430-driverlib-msp430f5529.a(gpio.c.obj)
 .debug_line.text.GPIO_setDriveStrength
                0x00000000       0x41 /home/chintal/code/toolchains/packages/msp430/lib/libmsp430-driverlib-msp430f5529.a(gpio.c.obj)
 .text          0x00000000        0x0 /home/chintal/code/toolchains/packages/msp430/lib/libmsp430-driverlib-msp430f5529.a(wdt_a.c.obj)
 .data          0x00000000        0x0 /home/chintal/code/toolchains/packages/msp430/lib/libmsp430-driverlib-msp430f5529.a(wdt_a.c.obj)
 .bss           0x00000000        0x0 /home/chintal/code/toolchains/packages/msp430/lib/libmsp430-driverlib-msp430f5529.a(wdt_a.c.obj)
 .text.WDT_A_start
                0x00000000       0x12 /home/chintal/code/toolchains/packages/msp430/lib/libmsp430-driverlib-msp430f5529.a(wdt_a.c.obj)
 .text.WDT_A_resetTimer
                0x00000000       0x16 /home/chintal/code/toolchains/packages/msp430/lib/libmsp430-driverlib-msp430f5529.a(wdt_a.c.obj)
 .text.WDT_A_initWatchdogTimer
                0x00000000       0x14 /home/chintal/code/toolchains/packages/msp430/lib/libmsp430-driverlib-msp430f5529.a(wdt_a.c.obj)
 .text.WDT_A_initIntervalTimer
                0x00000000       0x14 /home/chintal/code/toolchains/packages/msp430/lib/libmsp430-driverlib-msp430f5529.a(wdt_a.c.obj)
 .debug_line.text.WDT_A_start
                0x00000000       0x1c /home/chintal/code/toolchains/packages/msp430/lib/libmsp430-driverlib-msp430f5529.a(wdt_a.c.obj)
 .debug_line.text.WDT_A_resetTimer
                0x00000000       0x23 /home/chintal/code/toolchains/packages/msp430/lib/libmsp430-driverlib-msp430f5529.a(wdt_a.c.obj)
 .debug_line.text.WDT_A_initWatchdogTimer
                0x00000000       0x1d /home/chintal/code/toolchains/packages/msp430/lib/libmsp430-driverlib-msp430f5529.a(wdt_a.c.obj)
 .debug_line.text.WDT_A_initIntervalTimer
                0x00000000       0x1d /home/chintal/code/toolchains/packages/msp430/lib/libmsp430-driverlib-msp430f5529.a(wdt_a.c.obj)
 .text          0x00000000        0x0 /opt/ti/msp430/gcc/bin/../lib/gcc/msp430-elf/5.3.0/libgcc.a(lib2divHI.o)
 .data          0x00000000        0x0 /opt/ti/msp430/gcc/bin/../lib/gcc/msp430-elf/5.3.0/libgcc.a(lib2divHI.o)
 .bss           0x00000000        0x0 /opt/ti/msp430/gcc/bin/../lib/gcc/msp430-elf/5.3.0/libgcc.a(lib2divHI.o)
 .text.udivmodhi4
                0x00000000       0x3e /opt/ti/msp430/gcc/bin/../lib/gcc/msp430-elf/5.3.0/libgcc.a(lib2divHI.o)
 .text.__divhi3
                0x00000000       0x4c /opt/ti/msp430/gcc/bin/../lib/gcc/msp430-elf/5.3.0/libgcc.a(lib2divHI.o)
 .text.__modhi3
                0x00000000       0x32 /opt/ti/msp430/gcc/bin/../lib/gcc/msp430-elf/5.3.0/libgcc.a(lib2divHI.o)
 .text.__udivhi3
                0x00000000        0x8 /opt/ti/msp430/gcc/bin/../lib/gcc/msp430-elf/5.3.0/libgcc.a(lib2divHI.o)
 .text.__umodhi3
                0x00000000        0x8 /opt/ti/msp430/gcc/bin/../lib/gcc/msp430-elf/5.3.0/libgcc.a(lib2divHI.o)
 .text          0x00000000        0x4 /opt/ti/msp430/gcc/bin/../lib/gcc/msp430-elf/5.3.0/libgcc.a(lib2divSI.o)
 .data          0x00000000        0x0 /opt/ti/msp430/gcc/bin/../lib/gcc/msp430-elf/5.3.0/libgcc.a(lib2divSI.o)
 .bss           0x00000000        0x0 /opt/ti/msp430/gcc/bin/../lib/gcc/msp430-elf/5.3.0/libgcc.a(lib2divSI.o)
 .text.udivmodsi4
                0x00000000       0x88 /opt/ti/msp430/gcc/bin/../lib/gcc/msp430-elf/5.3.0/libgcc.a(lib2divSI.o)
 .text.__divsi3
                0x00000000       0x7a /opt/ti/msp430/gcc/bin/../lib/gcc/msp430-elf/5.3.0/libgcc.a(lib2divSI.o)
 .text.__modsi3
                0x00000000       0x58 /opt/ti/msp430/gcc/bin/../lib/gcc/msp430-elf/5.3.0/libgcc.a(lib2divSI.o)
 .text.__udivsi3
                0x00000000        0xe /opt/ti/msp430/gcc/bin/../lib/gcc/msp430-elf/5.3.0/libgcc.a(lib2divSI.o)
 .text.__umodsi3
                0x00000000        0xe /opt/ti/msp430/gcc/bin/../lib/gcc/msp430-elf/5.3.0/libgcc.a(lib2divSI.o)
 .data          0x00000000        0x0 /opt/ti/msp430/gcc/bin/../lib/gcc/msp430-elf/5.3.0/libgcc.a(slli.o)
 .bss           0x00000000        0x0 /opt/ti/msp430/gcc/bin/../lib/gcc/msp430-elf/5.3.0/libgcc.a(slli.o)
 .data          0x00000000        0x0 /opt/ti/msp430/gcc/bin/../lib/gcc/msp430-elf/5.3.0/libgcc.a(srli.o)
 .bss           0x00000000        0x0 /opt/ti/msp430/gcc/bin/../lib/gcc/msp430-elf/5.3.0/libgcc.a(srli.o)
 .text          0x00000000        0x0 /opt/ti/msp430/gcc/bin/../lib/gcc/msp430-elf/5.3.0/libgcc.a(_udivdi3.o)
 .data          0x00000000        0x0 /opt/ti/msp430/gcc/bin/../lib/gcc/msp430-elf/5.3.0/libgcc.a(_udivdi3.o)
 .bss           0x00000000        0x0 /opt/ti/msp430/gcc/bin/../lib/gcc/msp430-elf/5.3.0/libgcc.a(_udivdi3.o)
 .text.__udivdi3
                0x00000000      0x3ae /opt/ti/msp430/gcc/bin/../lib/gcc/msp430-elf/5.3.0/libgcc.a(_udivdi3.o)
 .text          0x00000000        0x0 /opt/ti/msp430/gcc/bin/../lib/gcc/msp430-elf/5.3.0/libgcc.a(_lshrdi3.o)
 .data          0x00000000        0x0 /opt/ti/msp430/gcc/bin/../lib/gcc/msp430-elf/5.3.0/libgcc.a(_lshrdi3.o)
 .bss           0x00000000        0x0 /opt/ti/msp430/gcc/bin/../lib/gcc/msp430-elf/5.3.0/libgcc.a(_lshrdi3.o)
 .text.__lshrdi3
                0x00000000       0x82 /opt/ti/msp430/gcc/bin/../lib/gcc/msp430-elf/5.3.0/libgcc.a(_lshrdi3.o)
 .text          0x00000000        0x0 /opt/ti/msp430/gcc/bin/../lib/gcc/msp430-elf/5.3.0/libgcc.a(_ashldi3.o)
 .data          0x00000000        0x0 /opt/ti/msp430/gcc/bin/../lib/gcc/msp430-elf/5.3.0/libgcc.a(_ashldi3.o)
 .bss           0x00000000        0x0 /opt/ti/msp430/gcc/bin/../lib/gcc/msp430-elf/5.3.0/libgcc.a(_ashldi3.o)
 .text.__ashldi3
                0x00000000       0x8c /opt/ti/msp430/gcc/bin/../lib/gcc/msp430-elf/5.3.0/libgcc.a(_ashldi3.o)
 .text          0x00000000        0x0 /opt/ti/msp430/gcc/bin/../lib/gcc/msp430-elf/5.3.0/libgcc.a(_clzdi2.o)
 .data          0x00000000        0x0 /opt/ti/msp430/gcc/bin/../lib/gcc/msp430-elf/5.3.0/libgcc.a(_clzdi2.o)
 .bss           0x00000000        0x0 /opt/ti/msp430/gcc/bin/../lib/gcc/msp430-elf/5.3.0/libgcc.a(_clzdi2.o)
 .text.__clzdi2
                0x00000000       0x5e /opt/ti/msp430/gcc/bin/../lib/gcc/msp430-elf/5.3.0/libgcc.a(_clzdi2.o)
 .text          0x00000000        0x0 /opt/ti/msp430/gcc/bin/../lib/gcc/msp430-elf/5.3.0/libgcc.a(_clz.o)
 .data          0x00000000        0x0 /opt/ti/msp430/gcc/bin/../lib/gcc/msp430-elf/5.3.0/libgcc.a(_clz.o)
 .bss           0x00000000        0x0 /opt/ti/msp430/gcc/bin/../lib/gcc/msp430-elf/5.3.0/libgcc.a(_clz.o)
 .rodata.__clz_tab
                0x00000000      0x100 /opt/ti/msp430/gcc/bin/../lib/gcc/msp430-elf/5.3.0/libgcc.a(_clz.o)
 .text          0x00000000        0x0 /opt/ti/msp430/gcc/bin/../lib/gcc/msp430-elf/5.3.0/libmul_f5.a(lib2hw_mul_f5.o)
 .data          0x00000000        0x0 /opt/ti/msp430/gcc/bin/../lib/gcc/msp430-elf/5.3.0/libmul_f5.a(lib2hw_mul_f5.o)
 .bss           0x00000000        0x0 /opt/ti/msp430/gcc/bin/../lib/gcc/msp430-elf/5.3.0/libmul_f5.a(lib2hw_mul_f5.o)
 .text.__mulhi2_f5
                0x00000000       0x14 /opt/ti/msp430/gcc/bin/../lib/gcc/msp430-elf/5.3.0/libmul_f5.a(lib2hw_mul_f5.o)
 .text.__mulsihi2
                0x00000000       0x18 /opt/ti/msp430/gcc/bin/../lib/gcc/msp430-elf/5.3.0/libmul_f5.a(lib2hw_mul_f5.o)
 .text.__umulsihi2
                0x00000000       0x18 /opt/ti/msp430/gcc/bin/../lib/gcc/msp430-elf/5.3.0/libmul_f5.a(lib2hw_mul_f5.o)
 .text.__mulsi2_f5
                0x00000000       0x20 /opt/ti/msp430/gcc/bin/../lib/gcc/msp430-elf/5.3.0/libmul_f5.a(lib2hw_mul_f5.o)
 .text.__muldisi2
                0x00000000       0x28 /opt/ti/msp430/gcc/bin/../lib/gcc/msp430-elf/5.3.0/libmul_f5.a(lib2hw_mul_f5.o)
 .text.__umuldisi2
                0x00000000       0x28 /opt/ti/msp430/gcc/bin/../lib/gcc/msp430-elf/5.3.0/libmul_f5.a(lib2hw_mul_f5.o)
 .text.__muldi3
                0x00000000        0x4 /opt/ti/msp430/gcc/bin/../lib/gcc/msp430-elf/5.3.0/libmul_f5.a(lib2hw_mul_f5.o)
 .text          0x00000000        0x0 /opt/ti/msp430/gcc/bin/../lib/gcc/msp430-elf/5.3.0/../../../../msp430-elf/lib/libc.a(lib_a-memcpy.o)
 .data          0x00000000        0x0 /opt/ti/msp430/gcc/bin/../lib/gcc/msp430-elf/5.3.0/../../../../msp430-elf/lib/libc.a(lib_a-memcpy.o)
 .bss           0x00000000        0x0 /opt/ti/msp430/gcc/bin/../lib/gcc/msp430-elf/5.3.0/../../../../msp430-elf/lib/libc.a(lib_a-memcpy.o)
 .text          0x00000000        0x0 /opt/ti/msp430/gcc/bin/../lib/gcc/msp430-elf/5.3.0/../../../../msp430-elf/lib/libc.a(lib_a-memset.o)
 .data          0x00000000        0x0 /opt/ti/msp430/gcc/bin/../lib/gcc/msp430-elf/5.3.0/../../../../msp430-elf/lib/libc.a(lib_a-memset.o)
 .bss           0x00000000        0x0 /opt/ti/msp430/gcc/bin/../lib/gcc/msp430-elf/5.3.0/../../../../msp430-elf/lib/libc.a(lib_a-memset.o)
 .text          0x00000000        0x0 /opt/ti/msp430/gcc/bin/../lib/gcc/msp430-elf/5.3.0/libgcc.a(_muldi3.o)
 .data          0x00000000        0x0 /opt/ti/msp430/gcc/bin/../lib/gcc/msp430-elf/5.3.0/libgcc.a(_muldi3.o)
 .bss           0x00000000        0x0 /opt/ti/msp430/gcc/bin/../lib/gcc/msp430-elf/5.3.0/libgcc.a(_muldi3.o)
 .text.__muldi3
                0x00000000      0x14c /opt/ti/msp430/gcc/bin/../lib/gcc/msp430-elf/5.3.0/libgcc.a(_muldi3.o)
 .text          0x00000000        0x0 /opt/ti/msp430/gcc/bin/../lib/gcc/msp430-elf/5.3.0/../../../../msp430-elf/lib/libcrt.a(crt_bss.o)
 .data          0x00000000        0x0 /opt/ti/msp430/gcc/bin/../lib/gcc/msp430-elf/5.3.0/../../../../msp430-elf/lib/libcrt.a(crt_bss.o)
 .bss           0x00000000        0x0 /opt/ti/msp430/gcc/bin/../lib/gcc/msp430-elf/5.3.0/../../../../msp430-elf/lib/libcrt.a(crt_bss.o)
 .text          0x00000000        0x0 /opt/ti/msp430/gcc/bin/../lib/gcc/msp430-elf/5.3.0/../../../../msp430-elf/lib/libcrt.a(crt_movedata.o)
 .data          0x00000000        0x0 /opt/ti/msp430/gcc/bin/../lib/gcc/msp430-elf/5.3.0/../../../../msp430-elf/lib/libcrt.a(crt_movedata.o)
 .bss           0x00000000        0x0 /opt/ti/msp430/gcc/bin/../lib/gcc/msp430-elf/5.3.0/../../../../msp430-elf/lib/libcrt.a(crt_movedata.o)
 .text          0x00000000        0x0 /opt/ti/msp430/gcc/bin/../lib/gcc/msp430-elf/5.3.0/../../../../msp430-elf/lib/libcrt.a(crt_main.o)
 .data          0x00000000        0x0 /opt/ti/msp430/gcc/bin/../lib/gcc/msp430-elf/5.3.0/../../../../msp430-elf/lib/libcrt.a(crt_main.o)
 .bss           0x00000000        0x0 /opt/ti/msp430/gcc/bin/../lib/gcc/msp430-elf/5.3.0/../../../../msp430-elf/lib/libcrt.a(crt_main.o)
 .text          0x00000000        0x0 /opt/ti/msp430/gcc/bin/../lib/gcc/msp430-elf/5.3.0/../../../../msp430-elf/lib/libc.a(lib_a-memmove.o)
 .data          0x00000000        0x0 /opt/ti/msp430/gcc/bin/../lib/gcc/msp430-elf/5.3.0/../../../../msp430-elf/lib/libc.a(lib_a-memmove.o)
 .bss           0x00000000        0x0 /opt/ti/msp430/gcc/bin/../lib/gcc/msp430-elf/5.3.0/../../../../msp430-elf/lib/libc.a(lib_a-memmove.o)
 .text          0x00000000        0x2 /opt/ti/msp430/gcc/bin/../lib/gcc/msp430-elf/5.3.0/crtend.o
 .data          0x00000000        0x0 /opt/ti/msp430/gcc/bin/../lib/gcc/msp430-elf/5.3.0/crtend.o
 .bss           0x00000000        0x0 /opt/ti/msp430/gcc/bin/../lib/gcc/msp430-elf/5.3.0/crtend.o
 .text.call___do_global_ctors_aux
                0x00000000        0x0 /opt/ti/msp430/gcc/bin/../lib/gcc/msp430-elf/5.3.0/crtend.o
 .text          0x00000000        0x0 /opt/ti/msp430/gcc/bin/../lib/gcc/msp430-elf/5.3.0/../../../../msp430-elf/lib/crtn.o
 .data          0x00000000        0x0 /opt/ti/msp430/gcc/bin/../lib/gcc/msp430-elf/5.3.0/../../../../msp430-elf/lib/crtn.o
 .bss           0x00000000        0x0 /opt/ti/msp430/gcc/bin/../lib/gcc/msp430-elf/5.3.0/../../../../msp430-elf/lib/crtn.o

Memory Configuration

Name             Origin             Length             Attributes
SFR              0x00000000         0x00000010
BSL              0x00001000         0x00000800
RAM              0x00002400         0x00002000
USBRAM           0x00001c00         0x00000800
INFOMEM          0x00001800         0x00000200
INFOA            0x00001980         0x00000080
INFOB            0x00001900         0x00000080
INFOC            0x00001880         0x00000080
INFOD            0x00001800         0x00000080
ROM              0x00004400         0x0000bb80         xr
HIROM            0x00010000         0x000143ff         xr
VECT1            0x0000ff80         0x00000002
VECT2            0x0000ff82         0x00000002
VECT3            0x0000ff84         0x00000002
VECT4            0x0000ff86         0x00000002
VECT5            0x0000ff88         0x00000002
VECT6            0x0000ff8a         0x00000002
VECT7            0x0000ff8c         0x00000002
VECT8            0x0000ff8e         0x00000002
VECT9            0x0000ff90         0x00000002
VECT10           0x0000ff92         0x00000002
VECT11           0x0000ff94         0x00000002
VECT12           0x0000ff96         0x00000002
VECT13           0x0000ff98         0x00000002
VECT14           0x0000ff9a         0x00000002
VECT15           0x0000ff9c         0x00000002
VECT16           0x0000ff9e         0x00000002
VECT17           0x0000ffa0         0x00000002
VECT18           0x0000ffa2         0x00000002
VECT19           0x0000ffa4         0x00000002
VECT20           0x0000ffa6         0x00000002
VECT21           0x0000ffa8         0x00000002
VECT22           0x0000ffaa         0x00000002
VECT23           0x0000ffac         0x00000002
VECT24           0x0000ffae         0x00000002
VECT25           0x0000ffb0         0x00000002
VECT26           0x0000ffb2         0x00000002
VECT27           0x0000ffb4         0x00000002
VECT28           0x0000ffb6         0x00000002
VECT29           0x0000ffb8         0x00000002
VECT30           0x0000ffba         0x00000002
VECT31           0x0000ffbc         0x00000002
VECT32           0x0000ffbe         0x00000002
VECT33           0x0000ffc0         0x00000002
VECT34           0x0000ffc2         0x00000002
VECT35           0x0000ffc4         0x00000002
VECT36           0x0000ffc6         0x00000002
VECT37           0x0000ffc8         0x00000002
VECT38           0x0000ffca         0x00000002
VECT39           0x0000ffcc         0x00000002
VECT40           0x0000ffce         0x00000002
VECT41           0x0000ffd0         0x00000002
VECT42           0x0000ffd2         0x00000002
VECT43           0x0000ffd4         0x00000002
VECT44           0x0000ffd6         0x00000002
VECT45           0x0000ffd8         0x00000002
VECT46           0x0000ffda         0x00000002
VECT47           0x0000ffdc         0x00000002
VECT48           0x0000ffde         0x00000002
VECT49           0x0000ffe0         0x00000002
VECT50           0x0000ffe2         0x00000002
VECT51           0x0000ffe4         0x00000002
VECT52           0x0000ffe6         0x00000002
VECT53           0x0000ffe8         0x00000002
VECT54           0x0000ffea         0x00000002
VECT55           0x0000ffec         0x00000002
VECT56           0x0000ffee         0x00000002
VECT57           0x0000fff0         0x00000002
VECT58           0x0000fff2         0x00000002
VECT59           0x0000fff4         0x00000002
VECT60           0x0000fff6         0x00000002
VECT61           0x0000fff8         0x00000002
VECT62           0x0000fffa         0x00000002
VECT63           0x0000fffc         0x00000002
RESETVEC         0x0000fffe         0x00000002
*default*        0x00000000         0xffffffff

Linker script and memory map

LOAD /opt/ti/msp430/gcc/bin/../lib/gcc/msp430-elf/5.3.0/../../../../msp430-elf/lib/crt0.o
LOAD /opt/ti/msp430/gcc/bin/../lib/gcc/msp430-elf/5.3.0/crtbegin.o
LOAD CMakeFiles/firmware-msp430f5529.elf.dir/main.c.obj
LOAD ../uc-impl/libhal-uc-core-msp430f5529.a
LOAD ../uc-impl/libhal-uc-gpio-msp430f5529.a
LOAD ../uc-impl/libhal-uc-uart-msp430f5529.a
LOAD ../uc-impl/libhal-uc-timer-msp430f5529.a
LOAD /home/chintal/code/toolchains/packages/msp430/lib/libprbs-msp430f5529.a
LOAD /home/chintal/code/toolchains/packages/msp430/lib/libmodbus-msp430f5529.a
LOAD ../subsystem/libmodbus-if-msp430f5529.a
LOAD /home/chintal/code/toolchains/packages/msp430/lib/libucdm-msp430f5529.a
LOAD ../subsystem/libucdm-if-msp430f5529.a
LOAD /home/chintal/code/toolchains/packages/msp430/lib/libtime-msp430f5529.a
LOAD ../subsystem/libtime-if-msp430f5529.a
LOAD ../uc-impl/usb-impl/libmsp430-usbapi-msp430f5529.a
LOAD /home/chintal/code/toolchains/packages/msp430/lib/libds-msp430f5529.a
LOAD ../uc-impl/libhal-uc-uart-msp430f5529.a
LOAD /home/chintal/code/toolchains/packages/msp430/lib/libprintf-msp430f5529.a
LOAD /home/chintal/code/toolchains/packages/msp430/lib/libmodbus-msp430f5529.a
LOAD /home/chintal/code/toolchains/packages/msp430/lib/libbytebuf-msp430f5529.a
LOAD /home/chintal/code/toolchains/packages/msp430/lib/libucdm-msp430f5529.a
LOAD /home/chintal/code/toolchains/packages/msp430/lib/libds-msp430f5529.a
LOAD ../uc-impl/libhal-uc-timer-msp430f5529.a
LOAD /home/chintal/code/toolchains/packages/msp430/lib/libtime-msp430f5529.a
LOAD /home/chintal/code/toolchains/packages/msp430/lib/libmsp430-driverlib-msp430f5529.a
LOAD /opt/ti/msp430/gcc/bin/../lib/gcc/msp430-elf/5.3.0/libgcc.a
START GROUP
LOAD /opt/ti/msp430/gcc/bin/../lib/gcc/msp430-elf/5.3.0/libmul_f5.a
LOAD /opt/ti/msp430/gcc/bin/../lib/gcc/msp430-elf/5.3.0/../../../../msp430-elf/lib/libc.a
LOAD /opt/ti/msp430/gcc/bin/../lib/gcc/msp430-elf/5.3.0/libgcc.a
LOAD /opt/ti/msp430/gcc/bin/../lib/gcc/msp430-elf/5.3.0/../../../../msp430-elf/lib/libcrt.a
LOAD /opt/ti/msp430/gcc/bin/../lib/gcc/msp430-elf/5.3.0/../../../../msp430-elf/lib/libnosys.a
END GROUP
LOAD /opt/ti/msp430/gcc/bin/../lib/gcc/msp430-elf/5.3.0/libgcc.a
LOAD /opt/ti/msp430/gcc/bin/../lib/gcc/msp430-elf/5.3.0/crtend.o
LOAD /opt/ti/msp430/gcc/bin/../lib/gcc/msp430-elf/5.3.0/../../../../msp430-elf/lib/crtn.o
LOAD /opt/ti/msp430/gcc/bin/../lib/gcc/msp430-elf/5.3.0/libgcc.a
                0x00002380                tSetupPacket = 0x2380
                0x00000920                tEndPoint0DescriptorBlock = 0x920
                0x000023c8                tInputEndPointDescriptorBlock = 0x23c8
                0x00002388                tOutputEndPointDescriptorBlock = 0x2388
                0x00002378                abIEP0Buffer = 0x2378
                0x00002370                abOEP0Buffer = 0x2370
                0x00001c00                pbXBufferAddressEp1 = 0x1c00
                0x00001c40                pbYBufferAddressEp1 = 0x1c40
                0x00001c80                pbXBufferAddressEp81 = 0x1c80
                0x00001cc0                pbYBufferAddressEp81 = 0x1cc0
                0x00001d00                pbXBufferAddressEp2 = 0x1d00
                0x00001d40                pbYBufferAddressEp2 = 0x1d40
                0x00001d80                pbXBufferAddressEp82 = 0x1d80
                0x00001dc0                pbYBufferAddressEp82 = 0x1dc0
                0x00001e00                pbXBufferAddressEp3 = 0x1e00
                0x00001e40                pbYBufferAddressEp3 = 0x1e40
                0x00001e80                pbXBufferAddressEp83 = 0x1e80
                0x00001ec0                pbYBufferAddressEp83 = 0x1ec0
                0x00001f00                pbXBufferAddressEp4 = 0x1f00
                0x00001f40                pbYBufferAddressEp4 = 0x1f40
                0x00001f80                pbXBufferAddressEp84 = 0x1f80
                0x00001fc0                pbYBufferAddressEp84 = 0x1fc0
                0x00002000                pbXBufferAddressEp5 = 0x2000
                0x00002040                pbYBufferAddressEp5 = 0x2040
                0x00002080                pbXBufferAddressEp85 = 0x2080
                0x000020c0                pbYBufferAddressEp85 = 0x20c0
                0x00002100                pbXBufferAddressEp6 = 0x2100
                0x00002140                pbYBufferAddressEp6 = 0x2140
                0x00002180                pbXBufferAddressEp86 = 0x2180
                0x000021c0                pbYBufferAddressEp86 = 0x21c0
                0x00002200                pbXBufferAddressEp7 = 0x2200
                0x00002240                pbYBufferAddressEp7 = 0x2240
                0x00002280                pbXBufferAddressEp87 = 0x2280
                0x000022c0                pbYBufferAddressEp87 = 0x22c0

__interrupt_vector_1
 *(__interrupt_vector_1)

__interrupt_vector_2
 *(__interrupt_vector_2)

__interrupt_vector_3
 *(__interrupt_vector_3)

__interrupt_vector_4
 *(__interrupt_vector_4)

__interrupt_vector_5
 *(__interrupt_vector_5)

__interrupt_vector_6
 *(__interrupt_vector_6)

__interrupt_vector_7
 *(__interrupt_vector_7)

__interrupt_vector_8
 *(__interrupt_vector_8)

__interrupt_vector_9
 *(__interrupt_vector_9)

__interrupt_vector_10
 *(__interrupt_vector_10)

__interrupt_vector_11
 *(__interrupt_vector_11)

__interrupt_vector_12
 *(__interrupt_vector_12)

__interrupt_vector_13
 *(__interrupt_vector_13)

__interrupt_vector_14
 *(__interrupt_vector_14)

__interrupt_vector_15
 *(__interrupt_vector_15)

__interrupt_vector_16
 *(__interrupt_vector_16)

__interrupt_vector_17
 *(__interrupt_vector_17)

__interrupt_vector_18
 *(__interrupt_vector_18)

__interrupt_vector_19
 *(__interrupt_vector_19)

__interrupt_vector_20
 *(__interrupt_vector_20)

__interrupt_vector_21
 *(__interrupt_vector_21)

__interrupt_vector_22
 *(__interrupt_vector_22)

__interrupt_vector_23
 *(__interrupt_vector_23)

__interrupt_vector_24
 *(__interrupt_vector_24)

__interrupt_vector_25
 *(__interrupt_vector_25)

__interrupt_vector_26
 *(__interrupt_vector_26)

__interrupt_vector_27
 *(__interrupt_vector_27)

__interrupt_vector_28
 *(__interrupt_vector_28)

__interrupt_vector_29
 *(__interrupt_vector_29)

__interrupt_vector_30
 *(__interrupt_vector_30)

__interrupt_vector_31
 *(__interrupt_vector_31)

__interrupt_vector_32
 *(__interrupt_vector_32)

__interrupt_vector_33
 *(__interrupt_vector_33)

__interrupt_vector_34
 *(__interrupt_vector_34)

__interrupt_vector_35
 *(__interrupt_vector_35)

__interrupt_vector_36
 *(__interrupt_vector_36)

__interrupt_vector_37
 *(__interrupt_vector_37)

__interrupt_vector_38
 *(__interrupt_vector_38)

__interrupt_vector_39
 *(__interrupt_vector_39)

__interrupt_vector_40
 *(__interrupt_vector_40)

__interrupt_vector_41
 *(__interrupt_vector_41)

__interrupt_vector_42
 *(__interrupt_vector_42)
 *(__interrupt_vector_rtc)

__interrupt_vector_43
 *(__interrupt_vector_43)
 *(__interrupt_vector_port2)

__interrupt_vector_44
 *(__interrupt_vector_44)
 *(__interrupt_vector_timer2_a1)

__interrupt_vector_45
 *(__interrupt_vector_45)
 *(__interrupt_vector_timer2_a0)

__interrupt_vector_46
 *(__interrupt_vector_46)
 *(__interrupt_vector_usci_b1)

__interrupt_vector_47
 *(__interrupt_vector_47)
 *(__interrupt_vector_usci_a1)

__interrupt_vector_48
 *(__interrupt_vector_48)
 *(__interrupt_vector_port1)

__interrupt_vector_49
 *(__interrupt_vector_49)
 *(__interrupt_vector_timer1_a1)

__interrupt_vector_50
                0x0000ffe2        0x2
 *(__interrupt_vector_50)
 __interrupt_vector_50
                0x0000ffe2        0x2 ../uc-impl/libhal-uc-timer-msp430f5529.a(timer_handlers.c.obj)
 *(__interrupt_vector_timer1_a0)

__interrupt_vector_51
 *(__interrupt_vector_51)
 *(__interrupt_vector_dma)

__interrupt_vector_52
                0x0000ffe6        0x2
 *(__interrupt_vector_52)
 __interrupt_vector_52
                0x0000ffe6        0x2 ../uc-impl/usb-impl/libmsp430-usbapi-msp430f5529.a(usb_irq_handler.c.obj)
 *(__interrupt_vector_usb_ubm)

__interrupt_vector_53
 *(__interrupt_vector_53)
 *(__interrupt_vector_timer0_a1)

__interrupt_vector_54
 *(__interrupt_vector_54)
 *(__interrupt_vector_timer0_a0)

__interrupt_vector_55
 *(__interrupt_vector_55)
 *(__interrupt_vector_adc12)

__interrupt_vector_56
 *(__interrupt_vector_56)
 *(__interrupt_vector_usci_b0)

__interrupt_vector_57
 *(__interrupt_vector_57)
 *(__interrupt_vector_usci_a0)

__interrupt_vector_58
 *(__interrupt_vector_58)
 *(__interrupt_vector_wdt)

__interrupt_vector_59
 *(__interrupt_vector_59)
 *(__interrupt_vector_timer0_b1)

__interrupt_vector_60
 *(__interrupt_vector_60)
 *(__interrupt_vector_timer0_b0)

__interrupt_vector_61
 *(__interrupt_vector_61)
 *(__interrupt_vector_comp_b)

__interrupt_vector_62
 *(__interrupt_vector_62)
 *(__interrupt_vector_unmi)

__interrupt_vector_63
 *(__interrupt_vector_63)
 *(__interrupt_vector_sysnmi)

__reset_vector  0x0000fffe        0x2
 *(__interrupt_vector_64)
 *(__interrupt_vector_reset)
 *(.resetvec)
 .resetvec      0x0000fffe        0x2 /opt/ti/msp430/gcc/bin/../lib/gcc/msp430-elf/5.3.0/../../../../msp430-elf/lib/crt0.o

.rodata         0x00004400      0x40e
                0x00004400                . = ALIGN (0x2)
 *(.plt)
                0x00004400                . = ALIGN (0x2)
 *(.lower.rodata.* .lower.rodata)
                0x00004400                . = ALIGN (0x2)
 *(.rodata .rodata.* .gnu.linkonce.r.* .const .const:*)
 .rodata._unimpl_handler
                0x00004400        0x6 /home/chintal/code/toolchains/packages/msp430/lib/libmodbus-msp430f5529.a(common.c.obj)
                0x00004400                _unimpl_handler
 .rodata.modbus_fcode_handlers
                0x00004406       0x28 /home/chintal/code/toolchains/packages/msp430/lib/libmodbus-msp430f5529.a(dispatch.c.obj)
 .rodata.modbus_aduformat_uart
                0x0000442e        0x8 /home/chintal/code/toolchains/packages/msp430/lib/libmodbus-msp430f5529.a(uart.c.obj)
                0x0000442e                modbus_aduformat_uart
 .rodata._eit_handler
                0x00004436        0x6 /home/chintal/code/toolchains/packages/msp430/lib/libmodbus-msp430f5529.a(special.c.obj)
                0x00004436                _eit_handler
 .rodata._rdfifoq_handler
                0x0000443c        0x6 /home/chintal/code/toolchains/packages/msp430/lib/libmodbus-msp430f5529.a(special.c.obj)
                0x0000443c                _rdfifoq_handler
 .rodata._wrfrec_handler
                0x00004442        0x6 /home/chintal/code/toolchains/packages/msp430/lib/libmodbus-msp430f5529.a(special.c.obj)
                0x00004442                _wrfrec_handler
 .rodata._rdfrec_handler
                0x00004448        0x6 /home/chintal/code/toolchains/packages/msp430/lib/libmodbus-msp430f5529.a(special.c.obj)
                0x00004448                _rdfrec_handler
 .rodata._repsid_handler
                0x0000444e        0x6 /home/chintal/code/toolchains/packages/msp430/lib/libmodbus-msp430f5529.a(special.c.obj)
                0x0000444e                _repsid_handler
 .rodata._rwmregs_handler
                0x00004454        0x6 /home/chintal/code/toolchains/packages/msp430/lib/libmodbus-msp430f5529.a(regs.c.obj)
                0x00004454                _rwmregs_handler
 .rodata._wrregm_handler
                0x0000445a        0x6 /home/chintal/code/toolchains/packages/msp430/lib/libmodbus-msp430f5529.a(regs.c.obj)
                0x0000445a                _wrregm_handler
 .rodata._wrmregs_handler
                0x00004460        0x6 /home/chintal/code/toolchains/packages/msp430/lib/libmodbus-msp430f5529.a(regs.c.obj)
                0x00004460                _wrmregs_handler
 .rodata._wrsreg_handler
                0x00004466        0x6 /home/chintal/code/toolchains/packages/msp430/lib/libmodbus-msp430f5529.a(regs.c.obj)
                0x00004466                _wrsreg_handler
 .rodata._rdireg_handler
                0x0000446c        0x6 /home/chintal/code/toolchains/packages/msp430/lib/libmodbus-msp430f5529.a(regs.c.obj)
                0x0000446c                _rdireg_handler
 .rodata._rdhreg_handler
                0x00004472        0x6 /home/chintal/code/toolchains/packages/msp430/lib/libmodbus-msp430f5529.a(regs.c.obj)
                0x00004472                _rdhreg_handler
 .rodata._gtcelog_handler
                0x00004478        0x6 /home/chintal/code/toolchains/packages/msp430/lib/libmodbus-msp430f5529.a(control.c.obj)
                0x00004478                _gtcelog_handler
 .rodata._gtcecnt_handler
                0x0000447e        0x6 /home/chintal/code/toolchains/packages/msp430/lib/libmodbus-msp430f5529.a(control.c.obj)
                0x0000447e                _gtcecnt_handler
 .rodata._diagnostics_handler
                0x00004484        0x6 /home/chintal/code/toolchains/packages/msp430/lib/libmodbus-msp430f5529.a(control.c.obj)
                0x00004484                _diagnostics_handler
 .rodata._rdexcst_handler
                0x0000448a        0x6 /home/chintal/code/toolchains/packages/msp430/lib/libmodbus-msp430f5529.a(control.c.obj)
                0x0000448a                _rdexcst_handler
 .rodata._wrmcoils_handler
                0x00004490        0x6 /home/chintal/code/toolchains/packages/msp430/lib/libmodbus-msp430f5529.a(bits.c.obj)
                0x00004490                _wrmcoils_handler
 .rodata._wrscoil_handler
                0x00004496        0x6 /home/chintal/code/toolchains/packages/msp430/lib/libmodbus-msp430f5529.a(bits.c.obj)
                0x00004496                _wrscoil_handler
 .rodata._rdinputs_handler
                0x0000449c        0x6 /home/chintal/code/toolchains/packages/msp430/lib/libmodbus-msp430f5529.a(bits.c.obj)
                0x0000449c                _rdinputs_handler
 .rodata._rdcoils_handler
                0x000044a2        0x6 /home/chintal/code/toolchains/packages/msp430/lib/libmodbus-msp430f5529.a(bits.c.obj)
                0x000044a2                _rdcoils_handler
 .rodata.modbus_if_txbuf_chunksize
                0x000044a8        0x1 ../subsystem/libmodbus-if-msp430f5529.a(modbus_iface.c.obj)
                0x000044a8                modbus_if_txbuf_chunksize
 .rodata.modbus_if_rxbuf_chunksize
                0x000044a9        0x1 ../subsystem/libmodbus-if-msp430f5529.a(modbus_iface.c.obj)
                0x000044a9                modbus_if_rxbuf_chunksize
 .rodata.ucdm_modbus_base_address
                0x000044aa        0x1 ../subsystem/libmodbus-if-msp430f5529.a(modbus_iface.c.obj)
                0x000044aa                ucdm_modbus_base_address
 *fill*         0x000044ab        0x1 
 .rodata.modbus_exception_status_p
                0x000044ac        0x2 ../subsystem/libmodbus-if-msp430f5529.a(modbus_iface.c.obj)
                0x000044ac                modbus_exception_status_p
 .rodata.modbus_diagnostic_register_p
                0x000044ae        0x2 ../subsystem/libmodbus-if-msp430f5529.a(modbus_iface.c.obj)
                0x000044ae                modbus_diagnostic_register_p
 .rodata.tUsbRequestList
                0x000044b0      0x12c ../uc-impl/usb-impl/libmsp430-usbapi-msp430f5529.a(descriptors.c.obj)
                0x000044b0                tUsbRequestList
 .rodata.stUsbHandle
                0x000045dc       0x30 ../uc-impl/usb-impl/libmsp430-usbapi-msp430f5529.a(descriptors.c.obj)
                0x000045dc                stUsbHandle
 .rodata.abromStringDescriptor
                0x0000460c      0x104 ../uc-impl/usb-impl/libmsp430-usbapi-msp430f5529.a(descriptors.c.obj)
                0x0000460c                abromStringDescriptor
 .rodata.abromConfigurationDescriptorGroup
                0x00004710       0xcf ../uc-impl/usb-impl/libmsp430-usbapi-msp430f5529.a(descriptors.c.obj)
                0x00004710                abromConfigurationDescriptorGroup
 .rodata.abromDeviceDescriptor
                0x000047df       0x12 ../uc-impl/usb-impl/libmsp430-usbapi-msp430f5529.a(descriptors.c.obj)
                0x000047df                abromDeviceDescriptor
 *fill*         0x000047f1        0x1 
 .rodata.GPIO_PORT_TO_BASE
                0x000047f2       0x1c /home/chintal/code/toolchains/packages/msp430/lib/libmsp430-driverlib-msp430f5529.a(gpio.c.obj)
                0x000047f2                GPIO_PORT_TO_BASE
 *(.rodata1)
 *(.gcc_except_table)
 *(.gcc_except_table.*)
                0x0000480e                PROVIDE (__preinit_array_start, .)
 *(.preinit_array)
                0x0000480e                PROVIDE (__preinit_array_end, .)
                0x0000480e                PROVIDE (__init_array_start, .)
 *(SORT(.init_array.*))
 *(.init_array)
                0x0000480e                PROVIDE (__init_array_end, .)
                0x0000480e                PROVIDE (__fini_array_start, .)
 *(.fini_array)
 *(SORT(.fini_array.*))
                0x0000480e                PROVIDE (__fini_array_end, .)

.rodata2        0x00004810       0x50
                0x00004810                . = ALIGN (0x2)
 *(.eh_frame_hdr)
 *(.eh_frame)
 .eh_frame      0x00004810        0x0 /opt/ti/msp430/gcc/bin/../lib/gcc/msp430-elf/5.3.0/crtbegin.o
 .eh_frame      0x00004810       0x44 /opt/ti/msp430/gcc/bin/../lib/gcc/msp430-elf/5.3.0/libgcc.a(_udivdi3.o)
 .eh_frame      0x00004854        0x4 /opt/ti/msp430/gcc/bin/../lib/gcc/msp430-elf/5.3.0/crtend.o
 *crtbegin*.o(.ctors)
 .ctors         0x00004858        0x2 /opt/ti/msp430/gcc/bin/../lib/gcc/msp430-elf/5.3.0/crtbegin.o
 *(EXCLUDE_FILE(*crtend*.o) .ctors)
 *(SORT(.ctors.*))
 *(.ctors)
 .ctors         0x0000485a        0x2 /opt/ti/msp430/gcc/bin/../lib/gcc/msp430-elf/5.3.0/crtend.o
 *crtbegin*.o(.dtors)
 .dtors         0x0000485c        0x2 /opt/ti/msp430/gcc/bin/../lib/gcc/msp430-elf/5.3.0/crtbegin.o
 *(EXCLUDE_FILE(*crtend*.o) .dtors)
 *(SORT(.dtors.*))
 *(.dtors)
 .dtors         0x0000485e        0x2 /opt/ti/msp430/gcc/bin/../lib/gcc/msp430-elf/5.3.0/crtend.o
                0x0000485e                __DTOR_END__

.upper.rodata
 *(.upper.rodata.* .upper.rodata)

.data           0x00002400        0xe load address 0x00004860
                0x00002400                . = ALIGN (0x2)
                0x00002400                PROVIDE (__datastart, .)
 *(.lower.data.* .lower.data)
                0x00002400                . = ALIGN (0x2)
 *(.either.data.* .either.data)
                0x00002400                . = ALIGN (0x2)
 *(.jcr)
 .jcr           0x00002400        0x0 /opt/ti/msp430/gcc/bin/../lib/gcc/msp430-elf/5.3.0/crtbegin.o
 .jcr           0x00002400        0x2 /opt/ti/msp430/gcc/bin/../lib/gcc/msp430-elf/5.3.0/crtend.o
 *(.data.rel.ro.local)
 *(.data.rel.ro*)
 *(.dynamic)
                0x00002402                . = ALIGN (0x2)
 *(.data .data.* .gnu.linkonce.d.*)
 .data.modbus_sm
                0x00002402        0xa /home/chintal/code/toolchains/packages/msp430/lib/libmodbus-msp430f5529.a(modbus.c.obj)
                0x00002402                modbus_sm
 .data.DMAP_MAXREGS
                0x0000240c        0x1 ../subsystem/libucdm-if-msp430f5529.a(ucdm_iface.c.obj)
                0x0000240c                DMAP_MAXREGS
 *(.gnu.linkonce.d.*personality*)
 *(.data1)
 *(.got.plt)
 *(.got)
                0x0000240e                . = ALIGN (0x2)
 *fill*         0x0000240d        0x1 
 *(.sdata .sdata.* .gnu.linkonce.s.* D_2 D_1)
                0x0000240e                . = ALIGN (0x2)
                0x0000240e                _edata = .
                [!provide]                PROVIDE (edata, .)
                [!provide]                PROVIDE (__dataend, .)
                0x00004860                PROVIDE (__romdatastart, LOADADDR (.data))
                0x0000000e                PROVIDE (__romdatacopysize, SIZEOF (.data))

.bss            0x0000240e      0x348 load address 0x0000486e
                0x0000240e                . = ALIGN (0x2)
                0x0000240e                PROVIDE (__bssstart, .)
 *(.lower.bss.* .lower.bss)
                0x0000240e                . = ALIGN (0x2)
 *(.either.bss.* .either.bss)
 *(.dynbss)
 *(.sbss .sbss.*)
 *(.bss .bss.* .gnu.linkonce.b.*)
 .bss.completed.3106
                0x0000240e        0x1 /opt/ti/msp430/gcc/bin/../lib/gcc/msp430-elf/5.3.0/crtbegin.o
 *fill*         0x0000240f        0x1 
 .bss.dtor_idx.3108
                0x00002410        0x2 /opt/ti/msp430/gcc/bin/../lib/gcc/msp430-elf/5.3.0/crtbegin.o
 .bss.object.3121
                0x00002412        0xe /opt/ti/msp430/gcc/bin/../lib/gcc/msp430-elf/5.3.0/crtbegin.o
 .bss.tm_current
                0x00002420        0x6 /home/chintal/code/toolchains/packages/msp430/lib/libtime-msp430f5529.a(time.c.obj)
                0x00002420                tm_current
 .bss.bRemoteWakeup
                0x00002426        0x1 ../uc-impl/usb-impl/libmsp430-usbapi-msp430f5529.a(usb.c.obj)
 .bss.bEnumerationStatus
                0x00002427        0x1 ../uc-impl/usb-impl/libmsp430-usbapi-msp430f5529.a(usb.c.obj)
                0x00002427                bEnumerationStatus
 .bss.bFunctionSuspended
                0x00002428        0x1 ../uc-impl/usb-impl/libmsp430-usbapi-msp430f5529.a(usb.c.obj)
                0x00002428                bFunctionSuspended
 .bss.bHostAskMoreDataThanAvailable
                0x00002429        0x1 ../uc-impl/usb-impl/libmsp430-usbapi-msp430f5529.a(usb.c.obj)
 .bss.pbOEP0Buffer
                0x0000242a        0x2 ../uc-impl/usb-impl/libmsp430-usbapi-msp430f5529.a(usb.c.obj)
 .bss.pbIEP0Buffer
                0x0000242c        0x2 ../uc-impl/usb-impl/libmsp430-usbapi-msp430f5529.a(usb.c.obj)
 .bss.bInterfaceNumber
                0x0000242e        0x1 ../uc-impl/usb-impl/libmsp430-usbapi-msp430f5529.a(usb.c.obj)
 .bss.bConfigurationNumber
                0x0000242f        0x1 ../uc-impl/usb-impl/libmsp430-usbapi-msp430f5529.a(usb.c.obj)
 .bss.privateXT2ClockFrequency
                0x00002430        0x4 /home/chintal/code/toolchains/packages/msp430/lib/libmsp430-driverlib-msp430f5529.a(ucs.c.obj)
 .bss.privateXT1ClockFrequency
                0x00002434        0x4 /home/chintal/code/toolchains/packages/msp430/lib/libmsp430-driverlib-msp430f5529.a(ucs.c.obj)
                0x00002438                . = ALIGN (0x2)
 *(COMMON)
 COMMON         0x00002438        0x1 ../uc-impl/libhal-uc-uart-msp430f5529.a(uart_handlers.c.obj)
                0x00002438                __uart_handler_inclusion
 COMMON         0x00002439        0x1 ../uc-impl/libhal-uc-timer-msp430f5529.a(timer_handlers.c.obj)
                0x00002439                __timer_handler_inclusion
 COMMON         0x0000243a      0x108 /home/chintal/code/toolchains/packages/msp430/lib/libmodbus-msp430f5529.a(modbus.c.obj)
                0x0000243a                modbus_ctrans
                0x0000243e                modbus_rxtxbuf
                0x0000253e                modbus_next_timeout
 COMMON         0x00002542       0x5c /home/chintal/code/toolchains/packages/msp430/lib/libmodbus-msp430f5529.a(diagnostics.c.obj)
                0x00002542                modbus_server_nak_cnt
                0x00002544                modbus_server_msg_cnt
                0x00002546                modbus_bus_exception_cnt
                0x00002548                modbus_server_busy_cnt
                0x0000254a                modbus_comm_event_log_buf
                0x0000258a                modbus_bus_char_overrun_cnt
                0x0000258c                modbus_comm_event_cnt
                0x0000258e                modbus_comm_event_log
                0x00002598                modbus_bus_msg_cnt
                0x0000259a                modbus_bus_comm_err_cnt
                0x0000259c                modbus_server_noresp_cnt
 COMMON         0x0000259e        0xa /home/chintal/code/toolchains/packages/msp430/lib/libucdm-msp430f5529.a(ucdm.c.obj)
                0x0000259e                ucdm_bwht
                0x000025a0                ucdm_exception_status
                0x000025a2                ucdm_diagnostic_register
                0x000025a4                DMAP_MAXBITS
                0x000025a6                ucdm_rwht
 COMMON         0x000025a8       0xc0 ../subsystem/libucdm-if-msp430f5529.a(ucdm_iface.c.obj)
                0x000025a8                ucdm_register
                0x00002628                ucdm_acctype
 COMMON         0x00002668        0x1 ../uc-impl/usb-impl/libmsp430-usbapi-msp430f5529.a(usb_irq_handler.c.obj)
                0x00002668                __usb_handler_inclusion
 *fill*         0x00002669        0x1 
 COMMON         0x0000266a       0x39 ../uc-impl/usb-impl/libmsp430-usbapi-msp430f5529.a(usb.c.obj)
                0x0000266a                abUsbRequestIncomingData
                0x00002672                abUsbRequestReturnData
                0x0000267a                abramSerialStringDescriptor
                0x0000269c                wUsbEventMask
                0x0000269e                wBytesRemainingOnIEP0
                0x000026a0                wBytesRemainingOnOEP0
                0x000026a2                bStatusAction
 *fill*         0x000026a3        0x1 
 COMMON         0x000026a4        0x4 ../uc-impl/usb-impl/libmsp430-usbapi-msp430f5529.a(usbdma.c.obj)
                0x000026a4                USB_RX_memcpy
                0x000026a6                USB_TX_memcpy
 COMMON         0x000026a8       0xae ../uc-impl/usb-impl/libmsp430-usbapi-msp430f5529.a(usbcdc.c.obj)
                0x000026a8                CdcWriteBufferCtrl
                0x000026e4                CdcWriteCtrl
                0x000026fc                CdcControl
                0x00002714                CdcReadCtrl
                0x00002726                CdcReadBufferCtrl
                [!provide]                PROVIDE (__bssend, .)
                0x00000348                PROVIDE (__bsssize, SIZEOF (.bss))

.noinit         0x00002756        0x0 load address 0x0000486e
                0x00002756                . = ALIGN (0x2)
                [!provide]                PROVIDE (__noinit_start, .)
 *(.noinit)
                0x00002756                . = ALIGN (0x2)
                [!provide]                PROVIDE (__noinit_end, .)

.heap           0x00002756        0x4 load address 0x0000486e
                0x00002756                . = ALIGN (0x2)
                0x00002756                __heap_start__ = .
                0x00002756                _end = __heap_start__
                [!provide]                PROVIDE (end, .)
 *(.heap)
                0x00002756                _end = .
                [!provide]                PROVIDE (end, .)
                0x00002756        0x4 LONG 0x0
                0x0000275a                __heap_end__ = .
                0x0000275a                __HeapLimit = __heap_end__

.stack          0x00004400        0x0
                0x00004400                PROVIDE (__stack, .)
 *(.stack)

.lowtext        0x0000486e       0x66
                0x0000486e                PROVIDE (_start, .)
                0x0000486e                . = ALIGN (0x2)
 *(SORT(.crt_*))
 .crt_0000start
                0x0000486e        0x4 /opt/ti/msp430/gcc/bin/../lib/gcc/msp430-elf/5.3.0/../../../../msp430-elf/lib/crt0.o
                0x0000486e                __crt0_start
 .crt_0100init_bss
                0x00004872        0xe /opt/ti/msp430/gcc/bin/../lib/gcc/msp430-elf/5.3.0/../../../../msp430-elf/lib/libcrt.a(crt_bss.o)
                0x00004872                __crt0_init_bss
 .crt_0300movedata
                0x00004880       0x14 /opt/ti/msp430/gcc/bin/../lib/gcc/msp430-elf/5.3.0/../../../../msp430-elf/lib/libcrt.a(crt_movedata.o)
                0x00004880                __crt0_movedata
 .crt_0700call_init_then_main
                0x00004894        0xa /opt/ti/msp430/gcc/bin/../lib/gcc/msp430-elf/5.3.0/../../../../msp430-elf/lib/libcrt.a(crt_main.o)
                0x00004894                __crt0_call_init_then_main
 .crt_0900main_init
                0x0000489e       0x36 /opt/ti/msp430/gcc/bin/../lib/gcc/msp430-elf/5.3.0/../../../../msp430-elf/lib/crt0.o
                0x0000489e                _msp430_run_init_array
                0x000048aa                _msp430_run_preinit_array
                0x000048b6                _msp430_run_fini_array
 *(.lowtext)

.text           0x000048d4     0x2bde
                0x000048d4                . = ALIGN (0x2)
 *(.lower.text.* .lower.text)
                0x000048d4                . = ALIGN (0x2)
 *(.text .stub .text.* .gnu.linkonce.t.* .text:*)
 .text.deregister_tm_clones
                0x000048d4       0x1e /opt/ti/msp430/gcc/bin/../lib/gcc/msp430-elf/5.3.0/crtbegin.o
 .text.register_tm_clones
                0x000048f2       0x2a /opt/ti/msp430/gcc/bin/../lib/gcc/msp430-elf/5.3.0/crtbegin.o
 .text.__do_global_dtors_aux
                0x0000491c       0x4a /opt/ti/msp430/gcc/bin/../lib/gcc/msp430-elf/5.3.0/crtbegin.o
 .text.frame_dummy
                0x00004966       0x2c /opt/ti/msp430/gcc/bin/../lib/gcc/msp430-elf/5.3.0/crtbegin.o
 .text.startup.main
                0x00004992       0x6e CMakeFiles/firmware-msp430f5529.elf.dir/main.c.obj
                0x00004992                main
 .text.power_set_full
                0x00004a00        0xa ../uc-impl/libhal-uc-core-msp430f5529.a(core_impl.c.obj)
                0x00004a00                power_set_full
 .text.clock_set_default
                0x00004a0a       0x90 ../uc-impl/libhal-uc-core-msp430f5529.a(core_impl.c.obj)
                0x00004a0a                clock_set_default
 .text._timer1_primary_irqhandler
                0x00004a9a       0x26 ../uc-impl/libhal-uc-timer-msp430f5529.a(timer_handlers.c.obj)
                0x00004a9a                _timer1_primary_irqhandler
 .text.modbus_init
                0x00004ac0       0x2c /home/chintal/code/toolchains/packages/msp430/lib/libmodbus-msp430f5529.a(modbus.c.obj)
                0x00004ac0                modbus_init
 .text.modbus_process_command
                0x00004aec       0x26 /home/chintal/code/toolchains/packages/msp430/lib/libmodbus-msp430f5529.a(modbus.c.obj)
                0x00004aec                modbus_process_command
 .text.modbus_state_machine
                0x00004b12      0x140 /home/chintal/code/toolchains/packages/msp430/lib/libmodbus-msp430f5529.a(modbus.c.obj)
                0x00004b12                modbus_state_machine
 .text.modbus_calculate_crc
                0x00004c52       0x42 /home/chintal/code/toolchains/packages/msp430/lib/libmodbus-msp430f5529.a(modbus.c.obj)
                0x00004c52                modbus_calculate_crc
 .text.modbus_clear_eventlog
                0x00004c94        0xa /home/chintal/code/toolchains/packages/msp430/lib/libmodbus-msp430f5529.a(diagnostics.c.obj)
                0x00004c94                modbus_clear_eventlog
 .text.modbus_clear_counters
                0x00004c9e       0x22 /home/chintal/code/toolchains/packages/msp430/lib/libmodbus-msp430f5529.a(diagnostics.c.obj)
                0x00004c9e                modbus_clear_counters
 .text.modbus_clear_diagnostics
                0x00004cc0       0x32 /home/chintal/code/toolchains/packages/msp430/lib/libmodbus-msp430f5529.a(diagnostics.c.obj)
                0x00004cc0                modbus_clear_diagnostics
 .text.modbus_init_eventlog
                0x00004cf2       0x1a /home/chintal/code/toolchains/packages/msp430/lib/libmodbus-msp430f5529.a(diagnostics.c.obj)
                0x00004cf2                modbus_init_eventlog
 .text.modbus_init_diagnostics
                0x00004d0c       0x26 /home/chintal/code/toolchains/packages/msp430/lib/libmodbus-msp430f5529.a(diagnostics.c.obj)
                0x00004d0c                modbus_init_diagnostics
 .text.modbus_build_exc_response.part.0
                0x00004d32       0x30 /home/chintal/code/toolchains/packages/msp430/lib/libmodbus-msp430f5529.a(common.c.obj)
 .text.modbus_handler_notimpl
                0x00004d62       0x12 /home/chintal/code/toolchains/packages/msp430/lib/libmodbus-msp430f5529.a(common.c.obj)
                0x00004d62                modbus_handler_notimpl
 .text.modbus_crlen
                0x00004d74       0x44 /home/chintal/code/toolchains/packages/msp430/lib/libmodbus-msp430f5529.a(common.c.obj)
                0x00004d74                modbus_crlen
 .text.modbus_build_exc_response
                0x00004db8       0x2e /home/chintal/code/toolchains/packages/msp430/lib/libmodbus-msp430f5529.a(common.c.obj)
                0x00004db8                modbus_build_exc_response
 .text.modbus_get_fcode_handler
                0x00004de6       0x58 /home/chintal/code/toolchains/packages/msp430/lib/libmodbus-msp430f5529.a(dispatch.c.obj)
                0x00004de6                modbus_get_fcode_handler
 .text.modbus_uart_adu_pack
                0x00004e3e       0x32 /home/chintal/code/toolchains/packages/msp430/lib/libmodbus-msp430f5529.a(uart.c.obj)
                0x00004e3e                modbus_uart_adu_pack
 .text.modbus_uart_adu_write
                0x00004e70       0x4a /home/chintal/code/toolchains/packages/msp430/lib/libmodbus-msp430f5529.a(uart.c.obj)
                0x00004e70                modbus_uart_adu_write
 .text.modbus_uart_adu_validate
                0x00004eba       0x66 /home/chintal/code/toolchains/packages/msp430/lib/libmodbus-msp430f5529.a(uart.c.obj)
                0x00004eba                modbus_uart_adu_validate
 .text.modbus_handler_repsid
                0x00004f20        0x6 /home/chintal/code/toolchains/packages/msp430/lib/libmodbus-msp430f5529.a(special.c.obj)
                0x00004f20                modbus_handler_repsid
 .text.modbus_handler_rdregs
                0x00004f26       0x8e /home/chintal/code/toolchains/packages/msp430/lib/libmodbus-msp430f5529.a(regs.c.obj)
                0x00004f26                modbus_handler_rdregs
 .text.modbus_handler_wrsreg
                0x00004fb4       0x34 /home/chintal/code/toolchains/packages/msp430/lib/libmodbus-msp430f5529.a(regs.c.obj)
                0x00004fb4                modbus_handler_wrsreg
 .text.modbus_handler_wrregs
                0x00004fe8       0x9a /home/chintal/code/toolchains/packages/msp430/lib/libmodbus-msp430f5529.a(regs.c.obj)
                0x00004fe8                modbus_handler_wrregs
 .text.modbus_handler_wrregm
                0x00005082       0x80 /home/chintal/code/toolchains/packages/msp430/lib/libmodbus-msp430f5529.a(regs.c.obj)
                0x00005082                modbus_handler_wrregm
 .text.modbus_handler_rwmregs
                0x00005102       0xee /home/chintal/code/toolchains/packages/msp430/lib/libmodbus-msp430f5529.a(regs.c.obj)
                0x00005102                modbus_handler_rwmregs
 .text.modbus_handler_rdexcst
                0x000051f0       0x24 /home/chintal/code/toolchains/packages/msp430/lib/libmodbus-msp430f5529.a(control.c.obj)
                0x000051f0                modbus_handler_rdexcst
 .text.modbus_handler_diagnostics
                0x00005214      0x1d0 /home/chintal/code/toolchains/packages/msp430/lib/libmodbus-msp430f5529.a(control.c.obj)
                0x00005214                modbus_handler_diagnostics
 .text.modbus_handler_gtcelog
                0x000053e4       0x7e /home/chintal/code/toolchains/packages/msp430/lib/libmodbus-msp430f5529.a(control.c.obj)
                0x000053e4                modbus_handler_gtcelog
 .text.modbus_handler_wrsbit
                0x00005462       0x3c /home/chintal/code/toolchains/packages/msp430/lib/libmodbus-msp430f5529.a(bits.c.obj)
                0x00005462                modbus_handler_wrsbit
 .text.modbus_if_init
                0x0000549e        0x2 ../subsystem/libmodbus-if-msp430f5529.a(modbus_iface.c.obj)
                0x0000549e                modbus_if_init
 .text.modbus_if_unhandled_rxb
                0x000054a0        0x8 ../subsystem/libmodbus-if-msp430f5529.a(modbus_iface.c.obj)
                0x000054a0                modbus_if_unhandled_rxb
 .text.modbus_if_read
                0x000054a8        0xc ../subsystem/libmodbus-if-msp430f5529.a(modbus_iface.c.obj)
                0x000054a8                modbus_if_read
 .text.modbus_if_reqlock
                0x000054b4       0x26 ../subsystem/libmodbus-if-msp430f5529.a(modbus_iface.c.obj)
                0x000054b4                modbus_if_reqlock
 .text.modbus_if_rellock
                0x000054da        0x4 ../subsystem/libmodbus-if-msp430f5529.a(modbus_iface.c.obj)
                0x000054da                modbus_if_rellock
 .text.modbus_if_write
                0x000054de       0x12 ../subsystem/libmodbus-if-msp430f5529.a(modbus_iface.c.obj)
                0x000054de                modbus_if_write
 .text.modbus_if_flush
                0x000054f0        0x8 ../subsystem/libmodbus-if-msp430f5529.a(modbus_iface.c.obj)
                0x000054f0                modbus_if_flush
 .text._ucdm_wfunc_set
                0x000054f8        0x6 /home/chintal/code/toolchains/packages/msp430/lib/libucdm-msp430f5529.a(ucdm.c.obj)
 .text._ucdm_wfunc_clear
                0x000054fe        0x6 /home/chintal/code/toolchains/packages/msp430/lib/libucdm-msp430f5529.a(ucdm.c.obj)
 .text._ucdm_generic_wop_bit.part.2
                0x00005504       0x9e /home/chintal/code/toolchains/packages/msp430/lib/libucdm-msp430f5529.a(ucdm.c.obj)
 .text.ucdm_init
                0x000055a2       0x36 /home/chintal/code/toolchains/packages/msp430/lib/libucdm-msp430f5529.a(ucdm.c.obj)
                0x000055a2                ucdm_init
 .text.ucdm_enable_bitw
                0x000055d8        0x6 /home/chintal/code/toolchains/packages/msp430/lib/libucdm-msp430f5529.a(ucdm.c.obj)
                0x000055d8                ucdm_enable_bitw
 .text.ucdm_enable_regw
                0x000055de        0x8 /home/chintal/code/toolchains/packages/msp430/lib/libucdm-msp430f5529.a(ucdm.c.obj)
                0x000055de                ucdm_enable_regw
 .text.ucdm_set_register
                0x000055e6       0x74 /home/chintal/code/toolchains/packages/msp430/lib/libucdm-msp430f5529.a(ucdm.c.obj)
                0x000055e6                ucdm_set_register
 .text.ucdm_get_register
                0x0000565a       0x3e /home/chintal/code/toolchains/packages/msp430/lib/libucdm-msp430f5529.a(ucdm.c.obj)
                0x0000565a                ucdm_get_register
 .text.ucdm_set_bit
                0x00005698       0x18 /home/chintal/code/toolchains/packages/msp430/lib/libucdm-msp430f5529.a(ucdm.c.obj)
                0x00005698                ucdm_set_bit
 .text.ucdm_clear_bit
                0x000056b0       0x18 /home/chintal/code/toolchains/packages/msp430/lib/libucdm-msp430f5529.a(ucdm.c.obj)
                0x000056b0                ucdm_clear_bit
 .text.app_ucdm_init
                0x000056c8       0x3a ../subsystem/libucdm-if-msp430f5529.a(ucdm_iface.c.obj)
                0x000056c8                app_ucdm_init
 .text.PWRVBUSoffHandler.part.0
                0x00005702       0x26 ../uc-impl/usb-impl/libmsp430-usbapi-msp430f5529.a(usb_irq_handler.c.obj)
 .text.PWRVBUSonHandler.part.1
                0x00005728       0x1a ../uc-impl/usb-impl/libmsp430-usbapi-msp430f5529.a(usb_irq_handler.c.obj)
 .text.SetupPacketInterruptHandler
                0x00005742       0x4c ../uc-impl/usb-impl/libmsp430-usbapi-msp430f5529.a(usb_irq_handler.c.obj)
                0x00005742                SetupPacketInterruptHandler
 .text.IEP0InterruptHandler
                0x0000578e       0x1c ../uc-impl/usb-impl/libmsp430-usbapi-msp430f5529.a(usb_irq_handler.c.obj)
                0x0000578e                IEP0InterruptHandler
 .text.OEP0InterruptHandler
                0x000057aa       0x38 ../uc-impl/usb-impl/libmsp430-usbapi-msp430f5529.a(usb_irq_handler.c.obj)
                0x000057aa                OEP0InterruptHandler
 .text.iUsbInterruptHandler
                0x000057e2      0x268 ../uc-impl/usb-impl/libmsp430-usbapi-msp430f5529.a(usb_irq_handler.c.obj)
                0x000057e2                iUsbInterruptHandler
 .text.USB_InitSerialStringDescriptor
                0x00005a4a       0xf8 ../uc-impl/usb-impl/libmsp430-usbapi-msp430f5529.a(usb.c.obj)
                0x00005a4a                USB_InitSerialStringDescriptor
 .text.USB_init
                0x00005b42       0x4c ../uc-impl/usb-impl/libmsp430-usbapi-msp430f5529.a(usb.c.obj)
                0x00005b42                USB_init
 .text.USB_enable
                0x00005b8e       0xbc ../uc-impl/usb-impl/libmsp430-usbapi-msp430f5529.a(usb.c.obj)
                0x00005b8e                USB_enable
 .text.USB_reset
                0x00005c4a      0x142 ../uc-impl/usb-impl/libmsp430-usbapi-msp430f5529.a(usb.c.obj)
                0x00005c4a                USB_reset
 .text.USB_connect
                0x00005d8c       0x1a ../uc-impl/usb-impl/libmsp430-usbapi-msp430f5529.a(usb.c.obj)
                0x00005d8c                USB_connect
 .text.USB_getConnectionInformation
                0x00005da6       0x3e ../uc-impl/usb-impl/libmsp430-usbapi-msp430f5529.a(usb.c.obj)
                0x00005da6                USB_getConnectionInformation
 .text.USB_setup
                0x00005de4       0x4c ../uc-impl/usb-impl/libmsp430-usbapi-msp430f5529.a(usb.c.obj)
                0x00005de4                USB_setup
 .text.USB_suspend
                0x00005e30       0x2c ../uc-impl/usb-impl/libmsp430-usbapi-msp430f5529.a(usb.c.obj)
                0x00005e30                USB_suspend
 .text.USB_resume
                0x00005e5c       0x18 ../uc-impl/usb-impl/libmsp430-usbapi-msp430f5529.a(usb.c.obj)
                0x00005e5c                USB_resume
 .text.usbSendNextPacketOnIEP0
                0x00005e74       0x78 ../uc-impl/usb-impl/libmsp430-usbapi-msp430f5529.a(usb.c.obj)
                0x00005e74                usbSendNextPacketOnIEP0
 .text.usbSendDataPacketOnEP0
                0x00005eec       0x26 ../uc-impl/usb-impl/libmsp430-usbapi-msp430f5529.a(usb.c.obj)
                0x00005eec                usbSendDataPacketOnEP0
 .text.usbReceiveNextPacketOnOEP0
                0x00005f12       0x64 ../uc-impl/usb-impl/libmsp430-usbapi-msp430f5529.a(usb.c.obj)
                0x00005f12                usbReceiveNextPacketOnOEP0
 .text.usbReceiveDataPacketOnEP0
                0x00005f76       0x14 ../uc-impl/usb-impl/libmsp430-usbapi-msp430f5529.a(usb.c.obj)
                0x00005f76                usbReceiveDataPacketOnEP0
 .text.usbSendZeroLengthPacketOnIEP0
                0x00005f8a        0xe ../uc-impl/usb-impl/libmsp430-usbapi-msp430f5529.a(usb.c.obj)
                0x00005f8a                usbSendZeroLengthPacketOnIEP0
 .text.usbClearEndpointFeature
                0x00005f98       0x88 ../uc-impl/usb-impl/libmsp430-usbapi-msp430f5529.a(usb.c.obj)
                0x00005f98                usbClearEndpointFeature
 .text.usbGetConfiguration
                0x00006020       0x34 ../uc-impl/usb-impl/libmsp430-usbapi-msp430f5529.a(usb.c.obj)
                0x00006020                usbGetConfiguration
 .text.usbGetDeviceDescriptor
                0x00006054       0x38 ../uc-impl/usb-impl/libmsp430-usbapi-msp430f5529.a(usb.c.obj)
                0x00006054                usbGetDeviceDescriptor
 .text.usbGetConfigurationDescriptor
                0x0000608c       0x38 ../uc-impl/usb-impl/libmsp430-usbapi-msp430f5529.a(usb.c.obj)
                0x0000608c                usbGetConfigurationDescriptor
 .text.usbGetStringDescriptor
                0x000060c4       0x94 ../uc-impl/usb-impl/libmsp430-usbapi-msp430f5529.a(usb.c.obj)
                0x000060c4                usbGetStringDescriptor
 .text.usbGetDeviceStatus
                0x00006158       0x4c ../uc-impl/usb-impl/libmsp430-usbapi-msp430f5529.a(usb.c.obj)
                0x00006158                usbGetDeviceStatus
 .text.usbGetInterfaceStatus
                0x000061a4       0x3e ../uc-impl/usb-impl/libmsp430-usbapi-msp430f5529.a(usb.c.obj)
                0x000061a4                usbGetInterfaceStatus
 .text.usbGetInterface
                0x000061e2        0x6 ../uc-impl/usb-impl/libmsp430-usbapi-msp430f5529.a(usb.c.obj)
                0x000061e2                usbGetInterface
 .text.usbGetEndpointStatus
                0x000061e8       0xb4 ../uc-impl/usb-impl/libmsp430-usbapi-msp430f5529.a(usb.c.obj)
                0x000061e8                usbGetEndpointStatus
 .text.usbSetAddress
                0x0000629c       0x2c ../uc-impl/usb-impl/libmsp430-usbapi-msp430f5529.a(usb.c.obj)
                0x0000629c                usbSetAddress
 .text.usbSetConfiguration
                0x000062c8       0x32 ../uc-impl/usb-impl/libmsp430-usbapi-msp430f5529.a(usb.c.obj)
                0x000062c8                usbSetConfiguration
 .text.usbClearDeviceFeature
                0x000062fa       0x26 ../uc-impl/usb-impl/libmsp430-usbapi-msp430f5529.a(usb.c.obj)
                0x000062fa                usbClearDeviceFeature
 .text.usbSetDeviceFeature
                0x00006320       0x26 ../uc-impl/usb-impl/libmsp430-usbapi-msp430f5529.a(usb.c.obj)
                0x00006320                usbSetDeviceFeature
 .text.usbSetEndpointFeature
                0x00006346       0x50 ../uc-impl/usb-impl/libmsp430-usbapi-msp430f5529.a(usb.c.obj)
                0x00006346                usbSetEndpointFeature
 .text.usbSetInterface
                0x00006396       0x1e ../uc-impl/usb-impl/libmsp430-usbapi-msp430f5529.a(usb.c.obj)
                0x00006396                usbSetInterface
 .text.usbInvalidRequest
                0x000063b4       0x12 ../uc-impl/usb-impl/libmsp430-usbapi-msp430f5529.a(usb.c.obj)
                0x000063b4                usbInvalidRequest
 .text.usbDecodeAndProcessUsbRequest
                0x000063c6       0xa8 ../uc-impl/usb-impl/libmsp430-usbapi-msp430f5529.a(usb.c.obj)
                0x000063c6                usbDecodeAndProcessUsbRequest
 .text.memcpyV  0x0000646e       0x20 ../uc-impl/usb-impl/libmsp430-usbapi-msp430f5529.a(usbdma.c.obj)
                0x0000646e                memcpyV
 .text.memcpyDMA
                0x0000648e       0x6a ../uc-impl/usb-impl/libmsp430-usbapi-msp430f5529.a(usbdma.c.obj)
                0x0000648e                memcpyDMA
 .text.USB_initMemcpy
                0x000064f8       0x4a ../uc-impl/usb-impl/libmsp430-usbapi-msp430f5529.a(usbdma.c.obj)
                0x000064f8                USB_initMemcpy
 .text.USBCDC_getInterfaceStatus_SendAvailable.part.0
                0x00006542       0x3c ../uc-impl/usb-impl/libmsp430-usbapi-msp430f5529.a(usbcdc.c.obj)
 .text.USBCDC_getInterfaceStatus_RecieveWaiting.part.1
                0x0000657e       0x36 ../uc-impl/usb-impl/libmsp430-usbapi-msp430f5529.a(usbcdc.c.obj)
 .text.USBCDC_resetWriteCtrl
                0x000065b4       0xbe ../uc-impl/usb-impl/libmsp430-usbapi-msp430f5529.a(usbcdc.c.obj)
                0x000065b4                USBCDC_resetWriteCtrl
 .text.USBCDC_resetReadCtrl
                0x00006672       0x82 ../uc-impl/usb-impl/libmsp430-usbapi-msp430f5529.a(usbcdc.c.obj)
                0x00006672                USBCDC_resetReadCtrl
 .text.USBCDC_resetData
                0x000066f4       0x5c ../uc-impl/usb-impl/libmsp430-usbapi-msp430f5529.a(usbcdc.c.obj)
                0x000066f4                USBCDC_resetData
 .text.USBCDC_getInterfaceStatus_SendAvailable
                0x00006750       0x1e ../uc-impl/usb-impl/libmsp430-usbapi-msp430f5529.a(usbcdc.c.obj)
                0x00006750                USBCDC_getInterfaceStatus_SendAvailable
 .text.USBCDC_getInterfaceStatus_RecieveWaiting
                0x0000676e       0x1e ../uc-impl/usb-impl/libmsp430-usbapi-msp430f5529.a(usbcdc.c.obj)
                0x0000676e                USBCDC_getInterfaceStatus_RecieveWaiting
 .text.USBCDC_sendFlush
                0x0000678c       0x52 ../uc-impl/usb-impl/libmsp430-usbapi-msp430f5529.a(usbcdc.c.obj)
                0x0000678c                USBCDC_sendFlush
 .text.USBCDC_sendBuffer
                0x000067de       0xd6 ../uc-impl/usb-impl/libmsp430-usbapi-msp430f5529.a(usbcdc.c.obj)
                0x000067de                USBCDC_sendBuffer
 .text.USBCDC_recieveBuffer
                0x000068b4       0xfc ../uc-impl/usb-impl/libmsp430-usbapi-msp430f5529.a(usbcdc.c.obj)
                0x000068b4                USBCDC_recieveBuffer
 .text.CdcToHostFromBuffer
                0x000069b0       0x66 ../uc-impl/usb-impl/libmsp430-usbapi-msp430f5529.a(usbcdc.c.obj)
                0x000069b0                CdcToHostFromBuffer
 .text.CdcToBufferFromHost
                0x00006a16       0x84 ../uc-impl/usb-impl/libmsp430-usbapi-msp430f5529.a(usbcdc.c.obj)
                0x00006a16                CdcToBufferFromHost
 .text.usbGetLineCoding
                0x00006a9a       0x82 ../uc-impl/usb-impl/libmsp430-usbapi-msp430f5529.a(usbcdc.c.obj)
                0x00006a9a                usbGetLineCoding
 .text.usbSetLineCoding
                0x00006b1c        0xc ../uc-impl/usb-impl/libmsp430-usbapi-msp430f5529.a(usbcdc.c.obj)
                0x00006b1c                usbSetLineCoding
 .text.usbSetControlLineState
                0x00006b28       0x18 ../uc-impl/usb-impl/libmsp430-usbapi-msp430f5529.a(usbcdc.c.obj)
                0x00006b28                usbSetControlLineState
 .text.Handler_SetLineCoding
                0x00006b40       0x6c ../uc-impl/usb-impl/libmsp430-usbapi-msp430f5529.a(usbcdc.c.obj)
                0x00006b40                Handler_SetLineCoding
 .text.USB_handleClockEvent
                0x00006bac        0x4 ../uc-impl/usb-impl/libmsp430-usbapi-msp430f5529.a(usb_event_handlers.c.obj)
                0x00006bac                USB_handleClockEvent
 .text.USB_handleVbusOnEvent
                0x00006bb0       0x14 ../uc-impl/usb-impl/libmsp430-usbapi-msp430f5529.a(usb_event_handlers.c.obj)
                0x00006bb0                USB_handleVbusOnEvent
 .text.USB_handleVbusOffEvent
                0x00006bc4        0x4 ../uc-impl/usb-impl/libmsp430-usbapi-msp430f5529.a(usb_event_handlers.c.obj)
                0x00006bc4                USB_handleVbusOffEvent
 .text.USB_handleResetEvent
                0x00006bc8        0x4 ../uc-impl/usb-impl/libmsp430-usbapi-msp430f5529.a(usb_event_handlers.c.obj)
                0x00006bc8                USB_handleResetEvent
 .text.USB_handleSuspendEvent
                0x00006bcc        0x4 ../uc-impl/usb-impl/libmsp430-usbapi-msp430f5529.a(usb_event_handlers.c.obj)
                0x00006bcc                USB_handleSuspendEvent
 .text.USB_handleResumeEvent
                0x00006bd0        0x4 ../uc-impl/usb-impl/libmsp430-usbapi-msp430f5529.a(usb_event_handlers.c.obj)
                0x00006bd0                USB_handleResumeEvent
 .text.USB_handleEnumerationCompleteEvent
                0x00006bd4        0x4 ../uc-impl/usb-impl/libmsp430-usbapi-msp430f5529.a(usb_event_handlers.c.obj)
                0x00006bd4                USB_handleEnumerationCompleteEvent
 .text.USBCDC_handleSetLineCoding
                0x00006bd8        0x4 ../uc-impl/usb-impl/libmsp430-usbapi-msp430f5529.a(usb_event_handlers.c.obj)
                0x00006bd8                USBCDC_handleSetLineCoding
 .text.USBCDC_handleSetControlLineState
                0x00006bdc        0x4 ../uc-impl/usb-impl/libmsp430-usbapi-msp430f5529.a(usb_event_handlers.c.obj)
                0x00006bdc                USBCDC_handleSetControlLineState
 .text.avlt_find_node
                0x00006be0       0x20 /home/chintal/code/toolchains/packages/msp430/lib/libds-msp430f5529.a(avltree.c.obj)
                0x00006be0                avlt_find_node
 .text.bytebuf_vInit
                0x00006c00       0x1e /home/chintal/code/toolchains/packages/msp430/lib/libbytebuf-msp430f5529.a(bytebuf.c.obj)
                0x00006c00                bytebuf_vInit
 .text.bytebuf_vFlush
                0x00006c1e       0x18 /home/chintal/code/toolchains/packages/msp430/lib/libbytebuf-msp430f5529.a(bytebuf.c.obj)
                0x00006c1e                bytebuf_vFlush
 .text.bytebuf_cCopyLen
                0x00006c36       0x62 /home/chintal/code/toolchains/packages/msp430/lib/libbytebuf-msp430f5529.a(bytebuf.c.obj)
                0x00006c36                bytebuf_cCopyLen
 .text.DMA_init
                0x00006c98       0x62 /home/chintal/code/toolchains/packages/msp430/lib/libmsp430-driverlib-msp430f5529.a(dma.c.obj)
                0x00006c98                DMA_init
 .text.DMA_setTransferSize
                0x00006cfa        0xa /home/chintal/code/toolchains/packages/msp430/lib/libmsp430-driverlib-msp430f5529.a(dma.c.obj)
                0x00006cfa                DMA_setTransferSize
 .text.DMA_setSrcAddress
                0x00006d04       0x2c /home/chintal/code/toolchains/packages/msp430/lib/libmsp430-driverlib-msp430f5529.a(dma.c.obj)
                0x00006d04                DMA_setSrcAddress
 .text.DMA_setDstAddress
                0x00006d30       0x30 /home/chintal/code/toolchains/packages/msp430/lib/libmsp430-driverlib-msp430f5529.a(dma.c.obj)
                0x00006d30                DMA_setDstAddress
 .text.DMA_enableTransfers
                0x00006d60        0xc /home/chintal/code/toolchains/packages/msp430/lib/libmsp430-driverlib-msp430f5529.a(dma.c.obj)
                0x00006d60                DMA_enableTransfers
 .text.DMA_disableTransfers
                0x00006d6c        0xc /home/chintal/code/toolchains/packages/msp430/lib/libmsp430-driverlib-msp430f5529.a(dma.c.obj)
                0x00006d6c                DMA_disableTransfers
 .text.DMA_startTransfer
                0x00006d78        0xa /home/chintal/code/toolchains/packages/msp430/lib/libmsp430-driverlib-msp430f5529.a(dma.c.obj)
                0x00006d78                DMA_startTransfer
 .text.DMA_getInterruptStatus
                0x00006d82        0xc /home/chintal/code/toolchains/packages/msp430/lib/libmsp430-driverlib-msp430f5529.a(dma.c.obj)
                0x00006d82                DMA_getInterruptStatus
 .text.DMA_disableTransferDuringReadModifyWrite
                0x00006d8e        0x6 /home/chintal/code/toolchains/packages/msp430/lib/libmsp430-driverlib-msp430f5529.a(dma.c.obj)
                0x00006d8e                DMA_disableTransferDuringReadModifyWrite
 .text.DMA_enableTransferDuringReadModifyWrite
                0x00006d94        0x6 /home/chintal/code/toolchains/packages/msp430/lib/libmsp430-driverlib-msp430f5529.a(dma.c.obj)
                0x00006d94                DMA_enableTransferDuringReadModifyWrite
 .text.TLV_getInfo
                0x00006d9a       0x6c /home/chintal/code/toolchains/packages/msp430/lib/libmsp430-driverlib-msp430f5529.a(tlv.c.obj)
                0x00006d9a                TLV_getInfo
 .text.PMM_setVCoreUp
                0x00006e06       0xd2 /home/chintal/code/toolchains/packages/msp430/lib/libmsp430-driverlib-msp430f5529.a(pmm.c.obj)
                0x00006e06                PMM_setVCoreUp
 .text.PMM_setVCoreDown
                0x00006ed8       0x94 /home/chintal/code/toolchains/packages/msp430/lib/libmsp430-driverlib-msp430f5529.a(pmm.c.obj)
                0x00006ed8                PMM_setVCoreDown
 .text.PMM_setVCore
                0x00006f6c       0x5c /home/chintal/code/toolchains/packages/msp430/lib/libmsp430-driverlib-msp430f5529.a(pmm.c.obj)
                0x00006f6c                PMM_setVCore
 .text.UCS_setExternalClockSource
                0x00006fc8       0x12 /home/chintal/code/toolchains/packages/msp430/lib/libmsp430-driverlib-msp430f5529.a(ucs.c.obj)
                0x00006fc8                UCS_setExternalClockSource
 .text.UCS_initClockSignal
                0x00006fda       0xb2 /home/chintal/code/toolchains/packages/msp430/lib/libmsp430-driverlib-msp430f5529.a(ucs.c.obj)
                0x00006fda                UCS_initClockSignal
 .text.UCS_turnOnLFXT1WithTimeout
                0x0000708c       0x48 /home/chintal/code/toolchains/packages/msp430/lib/libmsp430-driverlib-msp430f5529.a(ucs.c.obj)
                0x0000708c                UCS_turnOnLFXT1WithTimeout
 .text.UCS_turnOnXT2WithTimeout
                0x000070d4       0x4c /home/chintal/code/toolchains/packages/msp430/lib/libmsp430-driverlib-msp430f5529.a(ucs.c.obj)
                0x000070d4                UCS_turnOnXT2WithTimeout
 .text.UCS_initFLL
                0x00007120      0x100 /home/chintal/code/toolchains/packages/msp430/lib/libmsp430-driverlib-msp430f5529.a(ucs.c.obj)
                0x00007120                UCS_initFLL
 .text.UCS_initFLLSettle
                0x00007220       0x52 /home/chintal/code/toolchains/packages/msp430/lib/libmsp430-driverlib-msp430f5529.a(ucs.c.obj)
                0x00007220                UCS_initFLLSettle
 .text.UCS_enableClockRequest
                0x00007272        0x6 /home/chintal/code/toolchains/packages/msp430/lib/libmsp430-driverlib-msp430f5529.a(ucs.c.obj)
                0x00007272                UCS_enableClockRequest
 .text.SFR_enableInterrupt
                0x00007278        0x6 /home/chintal/code/toolchains/packages/msp430/lib/libmsp430-driverlib-msp430f5529.a(sfr.c.obj)
                0x00007278                SFR_enableInterrupt
 .text.SFR_clearInterrupt
                0x0000727e        0x6 /home/chintal/code/toolchains/packages/msp430/lib/libmsp430-driverlib-msp430f5529.a(sfr.c.obj)
                0x0000727e                SFR_clearInterrupt
 .text.GPIO_setAsOutputPin
                0x00007284       0x1e /home/chintal/code/toolchains/packages/msp430/lib/libmsp430-driverlib-msp430f5529.a(gpio.c.obj)
                0x00007284                GPIO_setAsOutputPin
 .text.GPIO_setAsPeripheralModuleFunctionOutputPin
                0x000072a2       0x1e /home/chintal/code/toolchains/packages/msp430/lib/libmsp430-driverlib-msp430f5529.a(gpio.c.obj)
                0x000072a2                GPIO_setAsPeripheralModuleFunctionOutputPin
 .text.GPIO_setAsPeripheralModuleFunctionInputPin
                0x000072c0       0x1e /home/chintal/code/toolchains/packages/msp430/lib/libmsp430-driverlib-msp430f5529.a(gpio.c.obj)
                0x000072c0                GPIO_setAsPeripheralModuleFunctionInputPin
 .text.WDT_A_hold
                0x000072de       0x18 /home/chintal/code/toolchains/packages/msp430/lib/libmsp430-driverlib-msp430f5529.a(wdt_a.c.obj)
                0x000072de                WDT_A_hold
 .text          0x000072f6       0x74 /opt/ti/msp430/gcc/bin/../lib/gcc/msp430-elf/5.3.0/libgcc.a(slli.o)
                0x000072f6                __mspabi_slli_15
                0x000072f8                __mspabi_slli_14
                0x000072fa                __mspabi_slli_13
                0x000072fc                __mspabi_slli_12
                0x000072fe                __mspabi_slli_11
                0x00007300                __mspabi_slli_10
                0x00007302                __mspabi_slli_9
                0x00007304                __mspabi_slli_8
                0x00007306                __mspabi_slli_7
                0x00007308                __mspabi_slli_6
                0x0000730a                __mspabi_slli_5
                0x0000730c                __mspabi_slli_4
                0x0000730e                __mspabi_slli_3
                0x00007310                __mspabi_slli_2
                0x00007312                __mspabi_slli_1
                0x0000731a                __mspabi_slli
                0x00007320                __mspabi_slll_15
                0x00007324                __mspabi_slll_14
                0x00007328                __mspabi_slll_13
                0x0000732c                __mspabi_slll_12
                0x00007330                __mspabi_slll_11
                0x00007334                __mspabi_slll_10
                0x00007338                __mspabi_slll_9
                0x0000733c                __mspabi_slll_8
                0x00007340                __mspabi_slll_7
                0x00007344                __mspabi_slll_6
                0x00007348                __mspabi_slll_5
                0x0000734c                __mspabi_slll_4
                0x00007350                __mspabi_slll_3
                0x00007354                __mspabi_slll_2
                0x00007358                __mspabi_slll_1
                0x00007364                __mspabi_slll
 .text          0x0000736a       0xb4 /opt/ti/msp430/gcc/bin/../lib/gcc/msp430-elf/5.3.0/libgcc.a(srli.o)
                0x0000736a                __mspabi_srli_15
                0x0000736e                __mspabi_srli_14
                0x00007372                __mspabi_srli_13
                0x00007376                __mspabi_srli_12
                0x0000737a                __mspabi_srli_11
                0x0000737e                __mspabi_srli_10
                0x00007382                __mspabi_srli_9
                0x00007386                __mspabi_srli_8
                0x0000738a                __mspabi_srli_7
                0x0000738e                __mspabi_srli_6
                0x00007392                __mspabi_srli_5
                0x00007396                __mspabi_srli_4
                0x0000739a                __mspabi_srli_3
                0x0000739e                __mspabi_srli_2
                0x000073a2                __mspabi_srli_1
                0x000073ae                __mspabi_srli
                0x000073b4                __mspabi_srll_15
                0x000073ba                __mspabi_srll_14
                0x000073c0                __mspabi_srll_13
                0x000073c6                __mspabi_srll_12
                0x000073cc                __mspabi_srll_11
                0x000073d2                __mspabi_srll_10
                0x000073d8                __mspabi_srll_9
                0x000073de                __mspabi_srll_8
                0x000073e4                __mspabi_srll_7
                0x000073ea                __mspabi_srll_6
                0x000073f0                __mspabi_srll_5
                0x000073f6                __mspabi_srll_4
                0x000073fc                __mspabi_srll_3
                0x00007402                __mspabi_srll_2
                0x00007408                __mspabi_srll_1
                0x00007418                __mspabi_srll
 .text.memcpy   0x0000741e       0x14 /opt/ti/msp430/gcc/bin/../lib/gcc/msp430-elf/5.3.0/../../../../msp430-elf/lib/libc.a(lib_a-memcpy.o)
                0x0000741e                memcpy
 .text.memset   0x00007432       0x12 /opt/ti/msp430/gcc/bin/../lib/gcc/msp430-elf/5.3.0/../../../../msp430-elf/lib/libc.a(lib_a-memset.o)
                0x00007432                memset
 .text.memmove  0x00007444       0x3a /opt/ti/msp430/gcc/bin/../lib/gcc/msp430-elf/5.3.0/../../../../msp430-elf/lib/libc.a(lib_a-memmove.o)
                0x00007444                memmove
 .text.__do_global_ctors_aux
                0x0000747e       0x18 /opt/ti/msp430/gcc/bin/../lib/gcc/msp430-elf/5.3.0/crtend.o
 *(.text.*personality*)
 *(.gnu.warning)
 *(.interp .hash .dynsym .dynstr .gnu.version*)
                [!provide]                PROVIDE (__etext, .)
                [!provide]                PROVIDE (_etext, .)
                [!provide]                PROVIDE (etext, .)
                0x00007496                . = ALIGN (0x2)
 *(.init)
 .init          0x00007496        0x0 /opt/ti/msp430/gcc/bin/../lib/gcc/msp430-elf/5.3.0/../../../../msp430-elf/lib/crt0.o
                0x00007496                __msp430_init
 .init          0x00007496        0x4 /opt/ti/msp430/gcc/bin/../lib/gcc/msp430-elf/5.3.0/crtbegin.o
 .init          0x0000749a        0x4 /opt/ti/msp430/gcc/bin/../lib/gcc/msp430-elf/5.3.0/crtend.o
 .init          0x0000749e        0xa /opt/ti/msp430/gcc/bin/../lib/gcc/msp430-elf/5.3.0/../../../../msp430-elf/lib/crtn.o
                0x000074a8                __msp430_init_end
 *(.fini)
 .fini          0x000074a8        0x4 /opt/ti/msp430/gcc/bin/../lib/gcc/msp430-elf/5.3.0/../../../../msp430-elf/lib/crt0.o
                0x000074a8                __msp430_fini
 .fini          0x000074ac        0x4 /opt/ti/msp430/gcc/bin/../lib/gcc/msp430-elf/5.3.0/crtbegin.o
 .fini          0x000074b0        0x2 /opt/ti/msp430/gcc/bin/../lib/gcc/msp430-elf/5.3.0/../../../../msp430-elf/lib/crtn.o
                0x000074b2                __msp430_fini_end
 *(.tm_clone_table)
 .tm_clone_table
                0x000074b2        0x0 /opt/ti/msp430/gcc/bin/../lib/gcc/msp430-elf/5.3.0/crtbegin.o
 .tm_clone_table
                0x000074b2        0x0 /opt/ti/msp430/gcc/bin/../lib/gcc/msp430-elf/5.3.0/crtend.o
                0x000074b2                __TMC_END__

.upper.text     0x00010000        0x0
                0x00010000                . = ALIGN (0x2)
 *(.upper.text.* .upper.text)

.infoA

.infoB

.infoC

.infoD

.upper          0x00002756        0x0
 *(.upper.bss.* .upper.bss)
 *(.upper.data.* .upper.data)
                0x00000001                ASSERT ((SIZEOF (.upper) == 0x0), This MCU does not support placing read/write data into high memory)

.MSP430.attributes
                0x00000000       0x17
 *(.MSP430.attributes)
 .MSP430.attributes
                0x00000000       0x17 /opt/ti/msp430/gcc/bin/../lib/gcc/msp430-elf/5.3.0/../../../../msp430-elf/lib/crt0.o
 .MSP430.attributes
                0x00000017       0x17 /opt/ti/msp430/gcc/bin/../lib/gcc/msp430-elf/5.3.0/crtbegin.o
 .MSP430.attributes
                0x0000002e       0x17 CMakeFiles/firmware-msp430f5529.elf.dir/main.c.obj
 .MSP430.attributes
                0x00000045       0x17 ../uc-impl/libhal-uc-core-msp430f5529.a(core_impl.c.obj)
 .MSP430.attributes
                0x0000005c       0x17 ../uc-impl/libhal-uc-uart-msp430f5529.a(uart_handlers.c.obj)
 .MSP430.attributes
                0x00000073       0x17 ../uc-impl/libhal-uc-timer-msp430f5529.a(timer_handlers.c.obj)
 .MSP430.attributes
                0x0000008a       0x17 /home/chintal/code/toolchains/packages/msp430/lib/libmodbus-msp430f5529.a(modbus.c.obj)
 .MSP430.attributes
                0x000000a1       0x17 /home/chintal/code/toolchains/packages/msp430/lib/libmodbus-msp430f5529.a(diagnostics.c.obj)
 .MSP430.attributes
                0x000000b8       0x17 /home/chintal/code/toolchains/packages/msp430/lib/libmodbus-msp430f5529.a(common.c.obj)
 .MSP430.attributes
                0x000000cf       0x17 /home/chintal/code/toolchains/packages/msp430/lib/libmodbus-msp430f5529.a(dispatch.c.obj)
 .MSP430.attributes
                0x000000e6       0x17 /home/chintal/code/toolchains/packages/msp430/lib/libmodbus-msp430f5529.a(uart.c.obj)
 .MSP430.attributes
                0x000000fd       0x17 /home/chintal/code/toolchains/packages/msp430/lib/libmodbus-msp430f5529.a(special.c.obj)
 .MSP430.attributes
                0x00000114       0x17 /home/chintal/code/toolchains/packages/msp430/lib/libmodbus-msp430f5529.a(regs.c.obj)
 .MSP430.attributes
                0x0000012b       0x17 /home/chintal/code/toolchains/packages/msp430/lib/libmodbus-msp430f5529.a(control.c.obj)
 .MSP430.attributes
                0x00000142       0x17 /home/chintal/code/toolchains/packages/msp430/lib/libmodbus-msp430f5529.a(bits.c.obj)
 .MSP430.attributes
                0x00000159       0x17 ../subsystem/libmodbus-if-msp430f5529.a(modbus_iface.c.obj)
 .MSP430.attributes
                0x00000170       0x17 /home/chintal/code/toolchains/packages/msp430/lib/libucdm-msp430f5529.a(ucdm.c.obj)
 .MSP430.attributes
                0x00000187       0x17 ../subsystem/libucdm-if-msp430f5529.a(ucdm_iface.c.obj)
 .MSP430.attributes
                0x0000019e       0x17 /home/chintal/code/toolchains/packages/msp430/lib/libtime-msp430f5529.a(time.c.obj)
 .MSP430.attributes
                0x000001b5       0x17 ../subsystem/libtime-if-msp430f5529.a(time_iface.c.obj)
 .MSP430.attributes
                0x000001cc       0x17 ../uc-impl/usb-impl/libmsp430-usbapi-msp430f5529.a(usb_irq_handler.c.obj)
 .MSP430.attributes
                0x000001e3       0x17 ../uc-impl/usb-impl/libmsp430-usbapi-msp430f5529.a(usb.c.obj)
 .MSP430.attributes
                0x000001fa       0x17 ../uc-impl/usb-impl/libmsp430-usbapi-msp430f5529.a(usbdma.c.obj)
 .MSP430.attributes
                0x00000211       0x17 ../uc-impl/usb-impl/libmsp430-usbapi-msp430f5529.a(usbcdc.c.obj)
 .MSP430.attributes
                0x00000228       0x17 ../uc-impl/usb-impl/libmsp430-usbapi-msp430f5529.a(usb_event_handlers.c.obj)
 .MSP430.attributes
                0x0000023f       0x17 ../uc-impl/usb-impl/libmsp430-usbapi-msp430f5529.a(descriptors.c.obj)
 .MSP430.attributes
                0x00000256       0x17 /home/chintal/code/toolchains/packages/msp430/lib/libds-msp430f5529.a(avltree.c.obj)
 .MSP430.attributes
                0x0000026d       0x17 /home/chintal/code/toolchains/packages/msp430/lib/libbytebuf-msp430f5529.a(bytebuf.c.obj)
 .MSP430.attributes
                0x00000284       0x17 ../uc-impl/libhal-uc-timer-msp430f5529.a(timer_impl.c.obj)
 .MSP430.attributes
                0x0000029b       0x17 /home/chintal/code/toolchains/packages/msp430/lib/libmsp430-driverlib-msp430f5529.a(dma.c.obj)
 .MSP430.attributes
                0x000002b2       0x17 /home/chintal/code/toolchains/packages/msp430/lib/libmsp430-driverlib-msp430f5529.a(tlv.c.obj)
 .MSP430.attributes
                0x000002c9       0x17 /home/chintal/code/toolchains/packages/msp430/lib/libmsp430-driverlib-msp430f5529.a(pmm.c.obj)
 .MSP430.attributes
                0x000002e0       0x17 /home/chintal/code/toolchains/packages/msp430/lib/libmsp430-driverlib-msp430f5529.a(ucs.c.obj)
 .MSP430.attributes
                0x000002f7       0x17 /home/chintal/code/toolchains/packages/msp430/lib/libmsp430-driverlib-msp430f5529.a(sfr.c.obj)
 .MSP430.attributes
                0x0000030e       0x17 /home/chintal/code/toolchains/packages/msp430/lib/libmsp430-driverlib-msp430f5529.a(gpio.c.obj)
 .MSP430.attributes
                0x00000325       0x17 /home/chintal/code/toolchains/packages/msp430/lib/libmsp430-driverlib-msp430f5529.a(wdt_a.c.obj)
 .MSP430.attributes
                0x0000033c       0x17 /opt/ti/msp430/gcc/bin/../lib/gcc/msp430-elf/5.3.0/libgcc.a(lib2divHI.o)
 .MSP430.attributes
                0x00000353       0x17 /opt/ti/msp430/gcc/bin/../lib/gcc/msp430-elf/5.3.0/libgcc.a(lib2divSI.o)
 .MSP430.attributes
                0x0000036a       0x17 /opt/ti/msp430/gcc/bin/../lib/gcc/msp430-elf/5.3.0/libgcc.a(slli.o)
 .MSP430.attributes
                0x00000381       0x17 /opt/ti/msp430/gcc/bin/../lib/gcc/msp430-elf/5.3.0/libgcc.a(srli.o)
 .MSP430.attributes
                0x00000398       0x17 /opt/ti/msp430/gcc/bin/../lib/gcc/msp430-elf/5.3.0/libgcc.a(_udivdi3.o)
 .MSP430.attributes
                0x000003af       0x17 /opt/ti/msp430/gcc/bin/../lib/gcc/msp430-elf/5.3.0/libgcc.a(_lshrdi3.o)
 .MSP430.attributes
                0x000003c6       0x17 /opt/ti/msp430/gcc/bin/../lib/gcc/msp430-elf/5.3.0/libgcc.a(_ashldi3.o)
 .MSP430.attributes
                0x000003dd       0x17 /opt/ti/msp430/gcc/bin/../lib/gcc/msp430-elf/5.3.0/libgcc.a(_clzdi2.o)
 .MSP430.attributes
                0x000003f4       0x17 /opt/ti/msp430/gcc/bin/../lib/gcc/msp430-elf/5.3.0/libgcc.a(_clz.o)
 .MSP430.attributes
                0x0000040b       0x17 /opt/ti/msp430/gcc/bin/../lib/gcc/msp430-elf/5.3.0/libmul_f5.a(lib2hw_mul_f5.o)
 .MSP430.attributes
                0x00000422       0x17 /opt/ti/msp430/gcc/bin/../lib/gcc/msp430-elf/5.3.0/../../../../msp430-elf/lib/libc.a(lib_a-memcpy.o)
 .MSP430.attributes
                0x00000439       0x17 /opt/ti/msp430/gcc/bin/../lib/gcc/msp430-elf/5.3.0/../../../../msp430-elf/lib/libc.a(lib_a-memset.o)
 .MSP430.attributes
                0x00000450       0x17 /opt/ti/msp430/gcc/bin/../lib/gcc/msp430-elf/5.3.0/libgcc.a(_muldi3.o)
 .MSP430.attributes
                0x00000467       0x17 /opt/ti/msp430/gcc/bin/../lib/gcc/msp430-elf/5.3.0/../../../../msp430-elf/lib/libcrt.a(crt_bss.o)
 .MSP430.attributes
                0x0000047e       0x17 /opt/ti/msp430/gcc/bin/../lib/gcc/msp430-elf/5.3.0/../../../../msp430-elf/lib/libcrt.a(crt_movedata.o)
 .MSP430.attributes
                0x00000495       0x17 /opt/ti/msp430/gcc/bin/../lib/gcc/msp430-elf/5.3.0/../../../../msp430-elf/lib/libcrt.a(crt_main.o)
 .MSP430.attributes
                0x000004ac       0x17 /opt/ti/msp430/gcc/bin/../lib/gcc/msp430-elf/5.3.0/../../../../msp430-elf/lib/libc.a(lib_a-memmove.o)
 .MSP430.attributes
                0x000004c3       0x17 /opt/ti/msp430/gcc/bin/../lib/gcc/msp430-elf/5.3.0/crtend.o
 .MSP430.attributes
                0x000004da       0x17 /opt/ti/msp430/gcc/bin/../lib/gcc/msp430-elf/5.3.0/../../../../msp430-elf/lib/crtn.o
 *(.gnu.attributes)
 *(__TI_build_attributes)

.stab
 *(.stab)

.stabstr
 *(.stabstr)

.stab.excl
 *(.stab.excl)

.stab.exclstr
 *(.stab.exclstr)

.stab.index
 *(.stab.index)

.stab.indexstr
 *(.stab.indexstr)

.comment        0x00000000       0x41
 *(.comment)
 .comment       0x00000000       0x41 /opt/ti/msp430/gcc/bin/../lib/gcc/msp430-elf/5.3.0/crtbegin.o
                                 0x42 (size before relaxing)
 .comment       0x00000041       0x42 CMakeFiles/firmware-msp430f5529.elf.dir/main.c.obj
 .comment       0x00000041       0x42 ../uc-impl/libhal-uc-core-msp430f5529.a(core_impl.c.obj)
 .comment       0x00000041       0x42 ../uc-impl/libhal-uc-uart-msp430f5529.a(uart_handlers.c.obj)
 .comment       0x00000041       0x42 ../uc-impl/libhal-uc-timer-msp430f5529.a(timer_handlers.c.obj)
 .comment       0x00000041       0x42 /home/chintal/code/toolchains/packages/msp430/lib/libmodbus-msp430f5529.a(modbus.c.obj)
 .comment       0x00000041       0x42 /home/chintal/code/toolchains/packages/msp430/lib/libmodbus-msp430f5529.a(diagnostics.c.obj)
 .comment       0x00000041       0x42 /home/chintal/code/toolchains/packages/msp430/lib/libmodbus-msp430f5529.a(common.c.obj)
 .comment       0x00000041       0x42 /home/chintal/code/toolchains/packages/msp430/lib/libmodbus-msp430f5529.a(dispatch.c.obj)
 .comment       0x00000041       0x42 /home/chintal/code/toolchains/packages/msp430/lib/libmodbus-msp430f5529.a(uart.c.obj)
 .comment       0x00000041       0x42 /home/chintal/code/toolchains/packages/msp430/lib/libmodbus-msp430f5529.a(special.c.obj)
 .comment       0x00000041       0x42 /home/chintal/code/toolchains/packages/msp430/lib/libmodbus-msp430f5529.a(regs.c.obj)
 .comment       0x00000041       0x42 /home/chintal/code/toolchains/packages/msp430/lib/libmodbus-msp430f5529.a(control.c.obj)
 .comment       0x00000041       0x42 /home/chintal/code/toolchains/packages/msp430/lib/libmodbus-msp430f5529.a(bits.c.obj)
 .comment       0x00000041       0x42 ../subsystem/libmodbus-if-msp430f5529.a(modbus_iface.c.obj)
 .comment       0x00000041       0x42 /home/chintal/code/toolchains/packages/msp430/lib/libucdm-msp430f5529.a(ucdm.c.obj)
 .comment       0x00000041       0x42 ../subsystem/libucdm-if-msp430f5529.a(ucdm_iface.c.obj)
 .comment       0x00000041       0x42 /home/chintal/code/toolchains/packages/msp430/lib/libtime-msp430f5529.a(time.c.obj)
 .comment       0x00000041       0x42 ../subsystem/libtime-if-msp430f5529.a(time_iface.c.obj)
 .comment       0x00000041       0x42 ../uc-impl/usb-impl/libmsp430-usbapi-msp430f5529.a(usb_irq_handler.c.obj)
 .comment       0x00000041       0x42 ../uc-impl/usb-impl/libmsp430-usbapi-msp430f5529.a(usb.c.obj)
 .comment       0x00000041       0x42 ../uc-impl/usb-impl/libmsp430-usbapi-msp430f5529.a(usbdma.c.obj)
 .comment       0x00000041       0x42 ../uc-impl/usb-impl/libmsp430-usbapi-msp430f5529.a(usbcdc.c.obj)
 .comment       0x00000041       0x42 ../uc-impl/usb-impl/libmsp430-usbapi-msp430f5529.a(usb_event_handlers.c.obj)
 .comment       0x00000041       0x42 ../uc-impl/usb-impl/libmsp430-usbapi-msp430f5529.a(descriptors.c.obj)
 .comment       0x00000041       0x42 /home/chintal/code/toolchains/packages/msp430/lib/libds-msp430f5529.a(avltree.c.obj)
 .comment       0x00000041       0x42 /home/chintal/code/toolchains/packages/msp430/lib/libbytebuf-msp430f5529.a(bytebuf.c.obj)
 .comment       0x00000041       0x42 ../uc-impl/libhal-uc-timer-msp430f5529.a(timer_impl.c.obj)
 .comment       0x00000041       0x42 /home/chintal/code/toolchains/packages/msp430/lib/libmsp430-driverlib-msp430f5529.a(dma.c.obj)
 .comment       0x00000041       0x42 /home/chintal/code/toolchains/packages/msp430/lib/libmsp430-driverlib-msp430f5529.a(tlv.c.obj)
 .comment       0x00000041       0x42 /home/chintal/code/toolchains/packages/msp430/lib/libmsp430-driverlib-msp430f5529.a(pmm.c.obj)
 .comment       0x00000041       0x42 /home/chintal/code/toolchains/packages/msp430/lib/libmsp430-driverlib-msp430f5529.a(ucs.c.obj)
 .comment       0x00000041       0x42 /home/chintal/code/toolchains/packages/msp430/lib/libmsp430-driverlib-msp430f5529.a(sfr.c.obj)
 .comment       0x00000041       0x42 /home/chintal/code/toolchains/packages/msp430/lib/libmsp430-driverlib-msp430f5529.a(gpio.c.obj)
 .comment       0x00000041       0x42 /home/chintal/code/toolchains/packages/msp430/lib/libmsp430-driverlib-msp430f5529.a(wdt_a.c.obj)
 .comment       0x00000041       0x42 /opt/ti/msp430/gcc/bin/../lib/gcc/msp430-elf/5.3.0/libgcc.a(lib2divHI.o)
 .comment       0x00000041       0x42 /opt/ti/msp430/gcc/bin/../lib/gcc/msp430-elf/5.3.0/libgcc.a(lib2divSI.o)
 .comment       0x00000041       0x42 /opt/ti/msp430/gcc/bin/../lib/gcc/msp430-elf/5.3.0/libgcc.a(_udivdi3.o)
 .comment       0x00000041       0x42 /opt/ti/msp430/gcc/bin/../lib/gcc/msp430-elf/5.3.0/libgcc.a(_lshrdi3.o)
 .comment       0x00000041       0x42 /opt/ti/msp430/gcc/bin/../lib/gcc/msp430-elf/5.3.0/libgcc.a(_ashldi3.o)
 .comment       0x00000041       0x42 /opt/ti/msp430/gcc/bin/../lib/gcc/msp430-elf/5.3.0/libgcc.a(_clzdi2.o)
 .comment       0x00000041       0x42 /opt/ti/msp430/gcc/bin/../lib/gcc/msp430-elf/5.3.0/libgcc.a(_clz.o)
 .comment       0x00000041       0x42 /opt/ti/msp430/gcc/bin/../lib/gcc/msp430-elf/5.3.0/../../../../msp430-elf/lib/libc.a(lib_a-memcpy.o)
 .comment       0x00000041       0x42 /opt/ti/msp430/gcc/bin/../lib/gcc/msp430-elf/5.3.0/../../../../msp430-elf/lib/libc.a(lib_a-memset.o)
 .comment       0x00000041       0x42 /opt/ti/msp430/gcc/bin/../lib/gcc/msp430-elf/5.3.0/libgcc.a(_muldi3.o)
 .comment       0x00000041       0x42 /opt/ti/msp430/gcc/bin/../lib/gcc/msp430-elf/5.3.0/../../../../msp430-elf/lib/libc.a(lib_a-memmove.o)
 .comment       0x00000041       0x42 /opt/ti/msp430/gcc/bin/../lib/gcc/msp430-elf/5.3.0/crtend.o

.debug_line     0x00000000     0x6ea2
 *(.debug_line .debug_line.* .debug_line_end)
 .debug_line    0x00000000      0x5b4 CMakeFiles/firmware-msp430f5529.elf.dir/main.c.obj
 .debug_line.text.startup.main
                0x000005b4       0x8e CMakeFiles/firmware-msp430f5529.elf.dir/main.c.obj
 .debug_line_end
                0x00000642        0x0 CMakeFiles/firmware-msp430f5529.elf.dir/main.c.obj
 .debug_line    0x00000642      0x191 ../uc-impl/libhal-uc-core-msp430f5529.a(core_impl.c.obj)
 .debug_line.text.power_set_full
                0x000007d3       0x1c ../uc-impl/libhal-uc-core-msp430f5529.a(core_impl.c.obj)
 .debug_line.text.clock_set_default
                0x000007ef       0x6b ../uc-impl/libhal-uc-core-msp430f5529.a(core_impl.c.obj)
 .debug_line_end
                0x0000085a        0x0 ../uc-impl/libhal-uc-core-msp430f5529.a(core_impl.c.obj)
 .debug_line    0x0000085a      0x16f ../uc-impl/libhal-uc-uart-msp430f5529.a(uart_handlers.c.obj)
 .debug_line_end
                0x000009c9        0x0 ../uc-impl/libhal-uc-uart-msp430f5529.a(uart_handlers.c.obj)
 .debug_line    0x000009c9      0x1ed ../uc-impl/libhal-uc-timer-msp430f5529.a(timer_handlers.c.obj)
 .debug_line.text._timer1_primary_irqhandler
                0x00000bb6       0x3c ../uc-impl/libhal-uc-timer-msp430f5529.a(timer_handlers.c.obj)
 .debug_line_end
                0x00000bf2        0x0 ../uc-impl/libhal-uc-timer-msp430f5529.a(timer_handlers.c.obj)
 .debug_line    0x00000bf2      0x22a /home/chintal/code/toolchains/packages/msp430/lib/libmodbus-msp430f5529.a(modbus.c.obj)
 .debug_line.text.modbus_init
                0x00000e1c       0x41 /home/chintal/code/toolchains/packages/msp430/lib/libmodbus-msp430f5529.a(modbus.c.obj)
 .debug_line.text.modbus_process_command
                0x00000e5d       0x47 /home/chintal/code/toolchains/packages/msp430/lib/libmodbus-msp430f5529.a(modbus.c.obj)
 .debug_line.text.modbus_state_machine
                0x00000ea4       0xfa /home/chintal/code/toolchains/packages/msp430/lib/libmodbus-msp430f5529.a(modbus.c.obj)
 .debug_line.text.modbus_calculate_crc
                0x00000f9e       0x55 /home/chintal/code/toolchains/packages/msp430/lib/libmodbus-msp430f5529.a(modbus.c.obj)
 .debug_line_end
                0x00000ff3        0x0 /home/chintal/code/toolchains/packages/msp430/lib/libmodbus-msp430f5529.a(modbus.c.obj)
 .debug_line    0x00000ff3      0x139 /home/chintal/code/toolchains/packages/msp430/lib/libmodbus-msp430f5529.a(diagnostics.c.obj)
 .debug_line.text.modbus_clear_eventlog
                0x0000112c       0x1d /home/chintal/code/toolchains/packages/msp430/lib/libmodbus-msp430f5529.a(diagnostics.c.obj)
 .debug_line.text.modbus_clear_counters
                0x00001149       0x47 /home/chintal/code/toolchains/packages/msp430/lib/libmodbus-msp430f5529.a(diagnostics.c.obj)
 .debug_line.text.modbus_clear_diagnostics
                0x00001190       0x53 /home/chintal/code/toolchains/packages/msp430/lib/libmodbus-msp430f5529.a(diagnostics.c.obj)
 .debug_line.text.modbus_init_eventlog
                0x000011e3       0x23 /home/chintal/code/toolchains/packages/msp430/lib/libmodbus-msp430f5529.a(diagnostics.c.obj)
 .debug_line.text.modbus_init_diagnostics
                0x00001206       0x4d /home/chintal/code/toolchains/packages/msp430/lib/libmodbus-msp430f5529.a(diagnostics.c.obj)
 .debug_line_end
                0x00001253        0x0 /home/chintal/code/toolchains/packages/msp430/lib/libmodbus-msp430f5529.a(diagnostics.c.obj)
 .debug_line    0x00001253      0x199 /home/chintal/code/toolchains/packages/msp430/lib/libmodbus-msp430f5529.a(common.c.obj)
 .debug_line.text.modbus_build_exc_response.part.0
                0x000013ec       0x2e /home/chintal/code/toolchains/packages/msp430/lib/libmodbus-msp430f5529.a(common.c.obj)
 .debug_line.text.modbus_handler_notimpl
                0x0000141a       0x22 /home/chintal/code/toolchains/packages/msp430/lib/libmodbus-msp430f5529.a(common.c.obj)
 .debug_line.text.modbus_crlen
                0x0000143c       0x64 /home/chintal/code/toolchains/packages/msp430/lib/libmodbus-msp430f5529.a(common.c.obj)
 .debug_line.text.modbus_build_exc_response
                0x000014a0       0x34 /home/chintal/code/toolchains/packages/msp430/lib/libmodbus-msp430f5529.a(common.c.obj)
 .debug_line_end
                0x000014d4        0x0 /home/chintal/code/toolchains/packages/msp430/lib/libmodbus-msp430f5529.a(common.c.obj)
 .debug_line    0x000014d4      0x156 /home/chintal/code/toolchains/packages/msp430/lib/libmodbus-msp430f5529.a(dispatch.c.obj)
 .debug_line.text.modbus_get_fcode_handler
                0x0000162a       0x71 /home/chintal/code/toolchains/packages/msp430/lib/libmodbus-msp430f5529.a(dispatch.c.obj)
 .debug_line_end
                0x0000169b        0x0 /home/chintal/code/toolchains/packages/msp430/lib/libmodbus-msp430f5529.a(dispatch.c.obj)
 .debug_line    0x0000169b      0x1e5 /home/chintal/code/toolchains/packages/msp430/lib/libmodbus-msp430f5529.a(uart.c.obj)
 .debug_line.text.modbus_uart_adu_pack
                0x00001880       0x2f /home/chintal/code/toolchains/packages/msp430/lib/libmodbus-msp430f5529.a(uart.c.obj)
 .debug_line.text.modbus_uart_adu_write
                0x000018af       0x53 /home/chintal/code/toolchains/packages/msp430/lib/libmodbus-msp430f5529.a(uart.c.obj)
 .debug_line.text.modbus_uart_adu_validate
                0x00001902       0x70 /home/chintal/code/toolchains/packages/msp430/lib/libmodbus-msp430f5529.a(uart.c.obj)
 .debug_line_end
                0x00001972        0x0 /home/chintal/code/toolchains/packages/msp430/lib/libmodbus-msp430f5529.a(uart.c.obj)
 .debug_line    0x00001972      0x138 /home/chintal/code/toolchains/packages/msp430/lib/libmodbus-msp430f5529.a(special.c.obj)
 .debug_line_end
                0x00001aaa        0x0 /home/chintal/code/toolchains/packages/msp430/lib/libmodbus-msp430f5529.a(special.c.obj)
 .debug_line    0x00001aaa      0x1cb /home/chintal/code/toolchains/packages/msp430/lib/libmodbus-msp430f5529.a(regs.c.obj)
 .debug_line.text.modbus_handler_rdregs
                0x00001c75       0x7a /home/chintal/code/toolchains/packages/msp430/lib/libmodbus-msp430f5529.a(regs.c.obj)
 .debug_line.text.modbus_handler_wrsreg
                0x00001cef       0x35 /home/chintal/code/toolchains/packages/msp430/lib/libmodbus-msp430f5529.a(regs.c.obj)
 .debug_line.text.modbus_handler_wrregs
                0x00001d24       0x7d /home/chintal/code/toolchains/packages/msp430/lib/libmodbus-msp430f5529.a(regs.c.obj)
 .debug_line.text.modbus_handler_wrregm
                0x00001da1       0x5f /home/chintal/code/toolchains/packages/msp430/lib/libmodbus-msp430f5529.a(regs.c.obj)
 .debug_line.text.modbus_handler_rwmregs
                0x00001e00       0xbd /home/chintal/code/toolchains/packages/msp430/lib/libmodbus-msp430f5529.a(regs.c.obj)
 .debug_line_end
                0x00001ebd        0x0 /home/chintal/code/toolchains/packages/msp430/lib/libmodbus-msp430f5529.a(regs.c.obj)
 .debug_line    0x00001ebd      0x1e5 /home/chintal/code/toolchains/packages/msp430/lib/libmodbus-msp430f5529.a(control.c.obj)
 .debug_line.text.modbus_handler_rdexcst
                0x000020a2       0x28 /home/chintal/code/toolchains/packages/msp430/lib/libmodbus-msp430f5529.a(control.c.obj)
 .debug_line.text.modbus_handler_diagnostics
                0x000020ca      0x15d /home/chintal/code/toolchains/packages/msp430/lib/libmodbus-msp430f5529.a(control.c.obj)
 .debug_line.text.modbus_handler_gtcelog
                0x00002227       0x87 /home/chintal/code/toolchains/packages/msp430/lib/libmodbus-msp430f5529.a(control.c.obj)
 .debug_line_end
                0x000022ae        0x0 /home/chintal/code/toolchains/packages/msp430/lib/libmodbus-msp430f5529.a(control.c.obj)
 .debug_line    0x000022ae      0x1cb /home/chintal/code/toolchains/packages/msp430/lib/libmodbus-msp430f5529.a(bits.c.obj)
 .debug_line.text.modbus_handler_wrsbit
                0x00002479       0x3a /home/chintal/code/toolchains/packages/msp430/lib/libmodbus-msp430f5529.a(bits.c.obj)
 .debug_line_end
                0x000024b3        0x0 /home/chintal/code/toolchains/packages/msp430/lib/libmodbus-msp430f5529.a(bits.c.obj)
 .debug_line    0x000024b3      0x301 ../subsystem/libmodbus-if-msp430f5529.a(modbus_iface.c.obj)
 .debug_line.text.modbus_if_init
                0x000027b4       0x16 ../subsystem/libmodbus-if-msp430f5529.a(modbus_iface.c.obj)
 .debug_line.text.modbus_if_unhandled_rxb
                0x000027ca       0x20 ../subsystem/libmodbus-if-msp430f5529.a(modbus_iface.c.obj)
 .debug_line.text.modbus_if_read
                0x000027ea       0x20 ../subsystem/libmodbus-if-msp430f5529.a(modbus_iface.c.obj)
 .debug_line.text.modbus_if_reqlock
                0x0000280a       0x3c ../subsystem/libmodbus-if-msp430f5529.a(modbus_iface.c.obj)
 .debug_line.text.modbus_if_rellock
                0x00002846       0x16 ../subsystem/libmodbus-if-msp430f5529.a(modbus_iface.c.obj)
 .debug_line.text.modbus_if_write
                0x0000285c       0x2b ../subsystem/libmodbus-if-msp430f5529.a(modbus_iface.c.obj)
 .debug_line.text.modbus_if_flush
                0x00002887       0x21 ../subsystem/libmodbus-if-msp430f5529.a(modbus_iface.c.obj)
 .debug_line_end
                0x000028a8        0x0 ../subsystem/libmodbus-if-msp430f5529.a(modbus_iface.c.obj)
 .debug_line    0x000028a8      0x124 /home/chintal/code/toolchains/packages/msp430/lib/libucdm-msp430f5529.a(ucdm.c.obj)
 .debug_line.text._ucdm_wfunc_set
                0x000029cc       0x1d /home/chintal/code/toolchains/packages/msp430/lib/libucdm-msp430f5529.a(ucdm.c.obj)
 .debug_line.text._ucdm_wfunc_clear
                0x000029e9       0x1d /home/chintal/code/toolchains/packages/msp430/lib/libucdm-msp430f5529.a(ucdm.c.obj)
 .debug_line.text._ucdm_generic_wop_bit.part.2
                0x00002a06       0x83 /home/chintal/code/toolchains/packages/msp430/lib/libucdm-msp430f5529.a(ucdm.c.obj)
 .debug_line.text.ucdm_init
                0x00002a89       0x34 /home/chintal/code/toolchains/packages/msp430/lib/libucdm-msp430f5529.a(ucdm.c.obj)
 .debug_line.text.ucdm_enable_bitw
                0x00002abd       0x1d /home/chintal/code/toolchains/packages/msp430/lib/libucdm-msp430f5529.a(ucdm.c.obj)
 .debug_line.text.ucdm_enable_regw
                0x00002ada       0x1d /home/chintal/code/toolchains/packages/msp430/lib/libucdm-msp430f5529.a(ucdm.c.obj)
 .debug_line.text.ucdm_set_register
                0x00002af7       0x71 /home/chintal/code/toolchains/packages/msp430/lib/libucdm-msp430f5529.a(ucdm.c.obj)
 .debug_line.text.ucdm_get_register
                0x00002b68       0x3b /home/chintal/code/toolchains/packages/msp430/lib/libucdm-msp430f5529.a(ucdm.c.obj)
 .debug_line.text.ucdm_set_bit
                0x00002ba3       0x23 /home/chintal/code/toolchains/packages/msp430/lib/libucdm-msp430f5529.a(ucdm.c.obj)
 .debug_line.text.ucdm_clear_bit
                0x00002bc6       0x23 /home/chintal/code/toolchains/packages/msp430/lib/libucdm-msp430f5529.a(ucdm.c.obj)
 .debug_line_end
                0x00002be9        0x0 /home/chintal/code/toolchains/packages/msp430/lib/libucdm-msp430f5529.a(ucdm.c.obj)
 .debug_line    0x00002be9      0x2ee ../subsystem/libucdm-if-msp430f5529.a(ucdm_iface.c.obj)
 .debug_line.text.app_ucdm_init
                0x00002ed7       0x52 ../subsystem/libucdm-if-msp430f5529.a(ucdm_iface.c.obj)
 .debug_line_end
                0x00002f29        0x0 ../subsystem/libucdm-if-msp430f5529.a(ucdm_iface.c.obj)
 .debug_line    0x00002f29       0xde /home/chintal/code/toolchains/packages/msp430/lib/libtime-msp430f5529.a(time.c.obj)
 .debug_line_end
                0x00003007        0x0 /home/chintal/code/toolchains/packages/msp430/lib/libtime-msp430f5529.a(time.c.obj)
 .debug_line    0x00003007      0x2ee ../subsystem/libtime-if-msp430f5529.a(time_iface.c.obj)
 .debug_line_end
                0x000032f5        0x0 ../subsystem/libtime-if-msp430f5529.a(time_iface.c.obj)
 .debug_line    0x000032f5      0x2af ../uc-impl/usb-impl/libmsp430-usbapi-msp430f5529.a(usb_irq_handler.c.obj)
 .debug_line.text.PWRVBUSoffHandler.part.0
                0x000035a4       0x41 ../uc-impl/usb-impl/libmsp430-usbapi-msp430f5529.a(usb_irq_handler.c.obj)
 .debug_line.text.PWRVBUSonHandler.part.1
                0x000035e5       0x2f ../uc-impl/usb-impl/libmsp430-usbapi-msp430f5529.a(usb_irq_handler.c.obj)
 .debug_line.text.SetupPacketInterruptHandler
                0x00003614       0x61 ../uc-impl/usb-impl/libmsp430-usbapi-msp430f5529.a(usb_irq_handler.c.obj)
 .debug_line.text.IEP0InterruptHandler
                0x00003675       0x35 ../uc-impl/usb-impl/libmsp430-usbapi-msp430f5529.a(usb_irq_handler.c.obj)
 .debug_line.text.OEP0InterruptHandler
                0x000036aa       0x59 ../uc-impl/usb-impl/libmsp430-usbapi-msp430f5529.a(usb_irq_handler.c.obj)
 .debug_line.text.iUsbInterruptHandler
                0x00003703      0x1c9 ../uc-impl/usb-impl/libmsp430-usbapi-msp430f5529.a(usb_irq_handler.c.obj)
 .debug_line_end
                0x000038cc        0x0 ../uc-impl/usb-impl/libmsp430-usbapi-msp430f5529.a(usb_irq_handler.c.obj)
 .debug_line    0x000038cc      0x3c7 ../uc-impl/usb-impl/libmsp430-usbapi-msp430f5529.a(usb.c.obj)
 .debug_line.text.USB_InitSerialStringDescriptor
                0x00003c93       0xbf ../uc-impl/usb-impl/libmsp430-usbapi-msp430f5529.a(usb.c.obj)
 .debug_line.text.USB_init
                0x00003d52       0x65 ../uc-impl/usb-impl/libmsp430-usbapi-msp430f5529.a(usb.c.obj)
 .debug_line.text.USB_enable
                0x00003db7       0xaf ../uc-impl/usb-impl/libmsp430-usbapi-msp430f5529.a(usb.c.obj)
 .debug_line.text.USB_reset
                0x00003e66      0x117 ../uc-impl/usb-impl/libmsp430-usbapi-msp430f5529.a(usb.c.obj)
 .debug_line.text.USB_connect
                0x00003f7d       0x2f ../uc-impl/usb-impl/libmsp430-usbapi-msp430f5529.a(usb.c.obj)
 .debug_line.text.USB_getConnectionInformation
                0x00003fac       0x53 ../uc-impl/usb-impl/libmsp430-usbapi-msp430f5529.a(usb.c.obj)
 .debug_line.text.USB_setup
                0x00003fff       0x5c ../uc-impl/usb-impl/libmsp430-usbapi-msp430f5529.a(usb.c.obj)
 .debug_line.text.USB_suspend
                0x0000405b       0x41 ../uc-impl/usb-impl/libmsp430-usbapi-msp430f5529.a(usb.c.obj)
 .debug_line.text.USB_resume
                0x0000409c       0x2f ../uc-impl/usb-impl/libmsp430-usbapi-msp430f5529.a(usb.c.obj)
 .debug_line.text.usbSendNextPacketOnIEP0
                0x000040cb       0xb3 ../uc-impl/usb-impl/libmsp430-usbapi-msp430f5529.a(usb.c.obj)
 .debug_line.text.usbSendDataPacketOnEP0
                0x0000417e       0x4d ../uc-impl/usb-impl/libmsp430-usbapi-msp430f5529.a(usb.c.obj)
 .debug_line.text.usbReceiveNextPacketOnOEP0
                0x000041cb       0x8d ../uc-impl/usb-impl/libmsp430-usbapi-msp430f5529.a(usb.c.obj)
 .debug_line.text.usbReceiveDataPacketOnEP0
                0x00004258       0x31 ../uc-impl/usb-impl/libmsp430-usbapi-msp430f5529.a(usb.c.obj)
 .debug_line.text.usbSendZeroLengthPacketOnIEP0
                0x00004289       0x29 ../uc-impl/usb-impl/libmsp430-usbapi-msp430f5529.a(usb.c.obj)
 .debug_line.text.usbClearEndpointFeature
                0x000042b2       0xba ../uc-impl/usb-impl/libmsp430-usbapi-msp430f5529.a(usb.c.obj)
 .debug_line.text.usbGetConfiguration
                0x0000436c       0x5f ../uc-impl/usb-impl/libmsp430-usbapi-msp430f5529.a(usb.c.obj)
 .debug_line.text.usbGetDeviceDescriptor
                0x000043cb       0x5f ../uc-impl/usb-impl/libmsp430-usbapi-msp430f5529.a(usb.c.obj)
 .debug_line.text.usbGetConfigurationDescriptor
                0x0000442a       0x5f ../uc-impl/usb-impl/libmsp430-usbapi-msp430f5529.a(usb.c.obj)
 .debug_line.text.usbGetStringDescriptor
                0x00004489       0xbc ../uc-impl/usb-impl/libmsp430-usbapi-msp430f5529.a(usb.c.obj)
 .debug_line.text.usbGetDeviceStatus
                0x00004545       0x77 ../uc-impl/usb-impl/libmsp430-usbapi-msp430f5529.a(usb.c.obj)
 .debug_line.text.usbGetInterfaceStatus
                0x000045bc       0x6b ../uc-impl/usb-impl/libmsp430-usbapi-msp430f5529.a(usb.c.obj)
 .debug_line.text.usbGetEndpointStatus
                0x00004627       0xd3 ../uc-impl/usb-impl/libmsp430-usbapi-msp430f5529.a(usb.c.obj)
 .debug_line.text.usbSetAddress
                0x000046fa       0x4d ../uc-impl/usb-impl/libmsp430-usbapi-msp430f5529.a(usb.c.obj)
 .debug_line.text.usbSetConfiguration
                0x00004747       0x57 ../uc-impl/usb-impl/libmsp430-usbapi-msp430f5529.a(usb.c.obj)
 .debug_line.text.usbClearDeviceFeature
                0x0000479e       0x4b ../uc-impl/usb-impl/libmsp430-usbapi-msp430f5529.a(usb.c.obj)
 .debug_line.text.usbSetDeviceFeature
                0x000047e9       0x4b ../uc-impl/usb-impl/libmsp430-usbapi-msp430f5529.a(usb.c.obj)
 .debug_line.text.usbSetEndpointFeature
                0x00004834       0x75 ../uc-impl/usb-impl/libmsp430-usbapi-msp430f5529.a(usb.c.obj)
 .debug_line.text.usbSetInterface
                0x000048a9       0x39 ../uc-impl/usb-impl/libmsp430-usbapi-msp430f5529.a(usb.c.obj)
 .debug_line.text.usbInvalidRequest
                0x000048e2       0x2b ../uc-impl/usb-impl/libmsp430-usbapi-msp430f5529.a(usb.c.obj)
 .debug_line.text.usbDecodeAndProcessUsbRequest
                0x0000490d       0xcf ../uc-impl/usb-impl/libmsp430-usbapi-msp430f5529.a(usb.c.obj)
 .debug_line_end
                0x000049dc        0x0 ../uc-impl/usb-impl/libmsp430-usbapi-msp430f5529.a(usb.c.obj)
 .debug_line    0x000049dc      0x1cd ../uc-impl/usb-impl/libmsp430-usbapi-msp430f5529.a(usbdma.c.obj)
 .debug_line.text.memcpyV
                0x00004ba9       0x3b ../uc-impl/usb-impl/libmsp430-usbapi-msp430f5529.a(usbdma.c.obj)
 .debug_line.text.memcpyDMA
                0x00004be4       0x59 ../uc-impl/usb-impl/libmsp430-usbapi-msp430f5529.a(usbdma.c.obj)
 .debug_line.text.USB_initMemcpy
                0x00004c3d       0x4d ../uc-impl/usb-impl/libmsp430-usbapi-msp430f5529.a(usbdma.c.obj)
 .debug_line_end
                0x00004c8a        0x0 ../uc-impl/usb-impl/libmsp430-usbapi-msp430f5529.a(usbdma.c.obj)
 .debug_line    0x00004c8a      0x369 ../uc-impl/usb-impl/libmsp430-usbapi-msp430f5529.a(usbcdc.c.obj)
 .debug_line.text.USBCDC_getInterfaceStatus_SendAvailable.part.0
                0x00004ff3       0x2f ../uc-impl/usb-impl/libmsp430-usbapi-msp430f5529.a(usbcdc.c.obj)
 .debug_line.text.USBCDC_getInterfaceStatus_RecieveWaiting.part.1
                0x00005022       0x2f ../uc-impl/usb-impl/libmsp430-usbapi-msp430f5529.a(usbcdc.c.obj)
 .debug_line.text.USBCDC_resetWriteCtrl
                0x00005051       0x7d ../uc-impl/usb-impl/libmsp430-usbapi-msp430f5529.a(usbcdc.c.obj)
 .debug_line.text.USBCDC_resetReadCtrl
                0x000050ce       0x6b ../uc-impl/usb-impl/libmsp430-usbapi-msp430f5529.a(usbcdc.c.obj)
 .debug_line.text.USBCDC_resetData
                0x00005139       0x4b ../uc-impl/usb-impl/libmsp430-usbapi-msp430f5529.a(usbcdc.c.obj)
 .debug_line.text.USBCDC_getInterfaceStatus_SendAvailable
                0x00005184       0x2f ../uc-impl/usb-impl/libmsp430-usbapi-msp430f5529.a(usbcdc.c.obj)
 .debug_line.text.USBCDC_getInterfaceStatus_RecieveWaiting
                0x000051b3       0x2f ../uc-impl/usb-impl/libmsp430-usbapi-msp430f5529.a(usbcdc.c.obj)
 .debug_line.text.USBCDC_sendFlush
                0x000051e2       0x58 ../uc-impl/usb-impl/libmsp430-usbapi-msp430f5529.a(usbcdc.c.obj)
 .debug_line.text.USBCDC_sendBuffer
                0x0000523a       0xb5 ../uc-impl/usb-impl/libmsp430-usbapi-msp430f5529.a(usbcdc.c.obj)
 .debug_line.text.USBCDC_recieveBuffer
                0x000052ef       0xcb ../uc-impl/usb-impl/libmsp430-usbapi-msp430f5529.a(usbcdc.c.obj)
 .debug_line.text.CdcToHostFromBuffer
                0x000053ba       0x70 ../uc-impl/usb-impl/libmsp430-usbapi-msp430f5529.a(usbcdc.c.obj)
 .debug_line.text.CdcToBufferFromHost
                0x0000542a       0x88 ../uc-impl/usb-impl/libmsp430-usbapi-msp430f5529.a(usbcdc.c.obj)
 .debug_line.text.usbGetLineCoding
                0x000054b2       0x5f ../uc-impl/usb-impl/libmsp430-usbapi-msp430f5529.a(usbcdc.c.obj)
 .debug_line.text.usbSetLineCoding
                0x00005511       0x1d ../uc-impl/usb-impl/libmsp430-usbapi-msp430f5529.a(usbcdc.c.obj)
 .debug_line.text.usbSetControlLineState
                0x0000552e       0x29 ../uc-impl/usb-impl/libmsp430-usbapi-msp430f5529.a(usbcdc.c.obj)
 .debug_line.text.Handler_SetLineCoding
                0x00005557       0x4d ../uc-impl/usb-impl/libmsp430-usbapi-msp430f5529.a(usbcdc.c.obj)
 .debug_line_end
                0x000055a4        0x0 ../uc-impl/usb-impl/libmsp430-usbapi-msp430f5529.a(usbcdc.c.obj)
 .debug_line    0x000055a4      0x2cd ../uc-impl/usb-impl/libmsp430-usbapi-msp430f5529.a(usb_event_handlers.c.obj)
 .debug_line.text.USB_handleVbusOnEvent
                0x00005871       0x2f ../uc-impl/usb-impl/libmsp430-usbapi-msp430f5529.a(usb_event_handlers.c.obj)
 .debug_line.text.USB_handleEnumerationCompleteEvent
                0x000058a0       0x1d ../uc-impl/usb-impl/libmsp430-usbapi-msp430f5529.a(usb_event_handlers.c.obj)
 .debug_line.text.USBCDC_handleSetLineCoding
                0x000058bd       0x17 ../uc-impl/usb-impl/libmsp430-usbapi-msp430f5529.a(usb_event_handlers.c.obj)
 .debug_line.text.USBCDC_handleSetControlLineState
                0x000058d4       0x17 ../uc-impl/usb-impl/libmsp430-usbapi-msp430f5529.a(usb_event_handlers.c.obj)
 .debug_line_end
                0x000058eb        0x0 ../uc-impl/usb-impl/libmsp430-usbapi-msp430f5529.a(usb_event_handlers.c.obj)
 .debug_line    0x000058eb      0x277 ../uc-impl/usb-impl/libmsp430-usbapi-msp430f5529.a(descriptors.c.obj)
 .debug_line_end
                0x00005b62        0x0 ../uc-impl/usb-impl/libmsp430-usbapi-msp430f5529.a(descriptors.c.obj)
 .debug_line    0x00005b62       0xe2 /home/chintal/code/toolchains/packages/msp430/lib/libds-msp430f5529.a(avltree.c.obj)
 .debug_line.text.avlt_find_node
                0x00005c44       0x3b /home/chintal/code/toolchains/packages/msp430/lib/libds-msp430f5529.a(avltree.c.obj)
 .debug_line_end
                0x00005c7f        0x0 /home/chintal/code/toolchains/packages/msp430/lib/libds-msp430f5529.a(avltree.c.obj)
 .debug_line    0x00005c7f       0xe7 /home/chintal/code/toolchains/packages/msp430/lib/libbytebuf-msp430f5529.a(bytebuf.c.obj)
 .debug_line.text.bytebuf_vInit
                0x00005d66       0x40 /home/chintal/code/toolchains/packages/msp430/lib/libbytebuf-msp430f5529.a(bytebuf.c.obj)
 .debug_line.text.bytebuf_vFlush
                0x00005da6       0x34 /home/chintal/code/toolchains/packages/msp430/lib/libbytebuf-msp430f5529.a(bytebuf.c.obj)
 .debug_line.text.bytebuf_cCopyLen
                0x00005dda       0x5d /home/chintal/code/toolchains/packages/msp430/lib/libbytebuf-msp430f5529.a(bytebuf.c.obj)
 .debug_line_end
                0x00005e37        0x0 /home/chintal/code/toolchains/packages/msp430/lib/libbytebuf-msp430f5529.a(bytebuf.c.obj)
 .debug_line    0x00005e37      0x18f ../uc-impl/libhal-uc-timer-msp430f5529.a(timer_impl.c.obj)
 .debug_line_end
                0x00005fc6        0x0 ../uc-impl/libhal-uc-timer-msp430f5529.a(timer_impl.c.obj)
 .debug_line    0x00005fc6       0xfe /home/chintal/code/toolchains/packages/msp430/lib/libmsp430-driverlib-msp430f5529.a(dma.c.obj)
 .debug_line.text.DMA_init
                0x000060c4       0x52 /home/chintal/code/toolchains/packages/msp430/lib/libmsp430-driverlib-msp430f5529.a(dma.c.obj)
 .debug_line.text.DMA_setTransferSize
                0x00006116       0x1d /home/chintal/code/toolchains/packages/msp430/lib/libmsp430-driverlib-msp430f5529.a(dma.c.obj)
 .debug_line.text.DMA_setSrcAddress
                0x00006133       0x29 /home/chintal/code/toolchains/packages/msp430/lib/libmsp430-driverlib-msp430f5529.a(dma.c.obj)
 .debug_line.text.DMA_setDstAddress
                0x0000615c       0x29 /home/chintal/code/toolchains/packages/msp430/lib/libmsp430-driverlib-msp430f5529.a(dma.c.obj)
 .debug_line.text.DMA_enableTransfers
                0x00006185       0x1d /home/chintal/code/toolchains/packages/msp430/lib/libmsp430-driverlib-msp430f5529.a(dma.c.obj)
 .debug_line.text.DMA_disableTransfers
                0x000061a2       0x1d /home/chintal/code/toolchains/packages/msp430/lib/libmsp430-driverlib-msp430f5529.a(dma.c.obj)
 .debug_line.text.DMA_startTransfer
                0x000061bf       0x1d /home/chintal/code/toolchains/packages/msp430/lib/libmsp430-driverlib-msp430f5529.a(dma.c.obj)
 .debug_line.text.DMA_getInterruptStatus
                0x000061dc       0x17 /home/chintal/code/toolchains/packages/msp430/lib/libmsp430-driverlib-msp430f5529.a(dma.c.obj)
 .debug_line.text.DMA_disableTransferDuringReadModifyWrite
                0x000061f3       0x1d /home/chintal/code/toolchains/packages/msp430/lib/libmsp430-driverlib-msp430f5529.a(dma.c.obj)
 .debug_line.text.DMA_enableTransferDuringReadModifyWrite
                0x00006210       0x1d /home/chintal/code/toolchains/packages/msp430/lib/libmsp430-driverlib-msp430f5529.a(dma.c.obj)
 .debug_line_end
                0x0000622d        0x0 /home/chintal/code/toolchains/packages/msp430/lib/libmsp430-driverlib-msp430f5529.a(dma.c.obj)
 .debug_line    0x0000622d       0xf5 /home/chintal/code/toolchains/packages/msp430/lib/libmsp430-driverlib-msp430f5529.a(tlv.c.obj)
 .debug_line.text.TLV_getInfo
                0x00006322       0x7c /home/chintal/code/toolchains/packages/msp430/lib/libmsp430-driverlib-msp430f5529.a(tlv.c.obj)
 .debug_line_end
                0x0000639e        0x0 /home/chintal/code/toolchains/packages/msp430/lib/libmsp430-driverlib-msp430f5529.a(tlv.c.obj)
 .debug_line    0x0000639e       0xf5 /home/chintal/code/toolchains/packages/msp430/lib/libmsp430-driverlib-msp430f5529.a(pmm.c.obj)
 .debug_line.text.PMM_setVCoreUp
                0x00006493      0x105 /home/chintal/code/toolchains/packages/msp430/lib/libmsp430-driverlib-msp430f5529.a(pmm.c.obj)
 .debug_line.text.PMM_setVCoreDown
                0x00006598       0xa9 /home/chintal/code/toolchains/packages/msp430/lib/libmsp430-driverlib-msp430f5529.a(pmm.c.obj)
 .debug_line.text.PMM_setVCore
                0x00006641       0x6b /home/chintal/code/toolchains/packages/msp430/lib/libmsp430-driverlib-msp430f5529.a(pmm.c.obj)
 .debug_line_end
                0x000066ac        0x0 /home/chintal/code/toolchains/packages/msp430/lib/libmsp430-driverlib-msp430f5529.a(pmm.c.obj)
 .debug_line    0x000066ac       0xf5 /home/chintal/code/toolchains/packages/msp430/lib/libmsp430-driverlib-msp430f5529.a(ucs.c.obj)
 .debug_line.text.UCS_setExternalClockSource
                0x000067a1       0x23 /home/chintal/code/toolchains/packages/msp430/lib/libmsp430-driverlib-msp430f5529.a(ucs.c.obj)
 .debug_line.text.UCS_initClockSignal
                0x000067c4       0xad /home/chintal/code/toolchains/packages/msp430/lib/libmsp430-driverlib-msp430f5529.a(ucs.c.obj)
 .debug_line.text.UCS_turnOnLFXT1WithTimeout
                0x00006871       0x7b /home/chintal/code/toolchains/packages/msp430/lib/libmsp430-driverlib-msp430f5529.a(ucs.c.obj)
 .debug_line.text.UCS_turnOnXT2WithTimeout
                0x000068ec       0x6f /home/chintal/code/toolchains/packages/msp430/lib/libmsp430-driverlib-msp430f5529.a(ucs.c.obj)
 .debug_line.text.UCS_initFLL
                0x0000695b      0x10d /home/chintal/code/toolchains/packages/msp430/lib/libmsp430-driverlib-msp430f5529.a(ucs.c.obj)
 .debug_line.text.UCS_initFLLSettle
                0x00006a68       0x41 /home/chintal/code/toolchains/packages/msp430/lib/libmsp430-driverlib-msp430f5529.a(ucs.c.obj)
 .debug_line.text.UCS_enableClockRequest
                0x00006aa9       0x1d /home/chintal/code/toolchains/packages/msp430/lib/libmsp430-driverlib-msp430f5529.a(ucs.c.obj)
 .debug_line_end
                0x00006ac6        0x0 /home/chintal/code/toolchains/packages/msp430/lib/libmsp430-driverlib-msp430f5529.a(ucs.c.obj)
 .debug_line    0x00006ac6       0xf5 /home/chintal/code/toolchains/packages/msp430/lib/libmsp430-driverlib-msp430f5529.a(sfr.c.obj)
 .debug_line.text.SFR_enableInterrupt
                0x00006bbb       0x1c /home/chintal/code/toolchains/packages/msp430/lib/libmsp430-driverlib-msp430f5529.a(sfr.c.obj)
 .debug_line.text.SFR_clearInterrupt
                0x00006bd7       0x1d /home/chintal/code/toolchains/packages/msp430/lib/libmsp430-driverlib-msp430f5529.a(sfr.c.obj)
 .debug_line_end
                0x00006bf4        0x0 /home/chintal/code/toolchains/packages/msp430/lib/libmsp430-driverlib-msp430f5529.a(sfr.c.obj)
 .debug_line    0x00006bf4       0xf6 /home/chintal/code/toolchains/packages/msp430/lib/libmsp430-driverlib-msp430f5529.a(gpio.c.obj)
 .debug_line.text.GPIO_setAsOutputPin
                0x00006cea       0x35 /home/chintal/code/toolchains/packages/msp430/lib/libmsp430-driverlib-msp430f5529.a(gpio.c.obj)
 .debug_line.text.GPIO_setAsPeripheralModuleFunctionOutputPin
                0x00006d1f       0x35 /home/chintal/code/toolchains/packages/msp430/lib/libmsp430-driverlib-msp430f5529.a(gpio.c.obj)
 .debug_line.text.GPIO_setAsPeripheralModuleFunctionInputPin
                0x00006d54       0x35 /home/chintal/code/toolchains/packages/msp430/lib/libmsp430-driverlib-msp430f5529.a(gpio.c.obj)
 .debug_line_end
                0x00006d89        0x0 /home/chintal/code/toolchains/packages/msp430/lib/libmsp430-driverlib-msp430f5529.a(gpio.c.obj)
 .debug_line    0x00006d89       0xf7 /home/chintal/code/toolchains/packages/msp430/lib/libmsp430-driverlib-msp430f5529.a(wdt_a.c.obj)
 .debug_line.text.WDT_A_hold
                0x00006e80       0x22 /home/chintal/code/toolchains/packages/msp430/lib/libmsp430-driverlib-msp430f5529.a(wdt_a.c.obj)
 .debug_line_end
                0x00006ea2        0x0 /home/chintal/code/toolchains/packages/msp430/lib/libmsp430-driverlib-msp430f5529.a(wdt_a.c.obj)
 *(.debug_line .debug_line.* .debug_line_end)

.line
 *(.line)

.debug_srcinfo
 *(.debug_srcinfo)

.debug_sfnames
 *(.debug_sfnames)

.debug_aranges  0x00000000      0xc70
 *(.debug_aranges)
 .debug_aranges
                0x00000000       0x20 CMakeFiles/firmware-msp430f5529.elf.dir/main.c.obj
 .debug_aranges
                0x00000020       0x30 ../uc-impl/libhal-uc-core-msp430f5529.a(core_impl.c.obj)
 .debug_aranges
                0x00000050       0x18 ../uc-impl/libhal-uc-uart-msp430f5529.a(uart_handlers.c.obj)
 .debug_aranges
                0x00000068       0x20 ../uc-impl/libhal-uc-timer-msp430f5529.a(timer_handlers.c.obj)
 .debug_aranges
                0x00000088       0x48 /home/chintal/code/toolchains/packages/msp430/lib/libmodbus-msp430f5529.a(modbus.c.obj)
 .debug_aranges
                0x000000d0       0x40 /home/chintal/code/toolchains/packages/msp430/lib/libmodbus-msp430f5529.a(diagnostics.c.obj)
 .debug_aranges
                0x00000110       0x38 /home/chintal/code/toolchains/packages/msp430/lib/libmodbus-msp430f5529.a(common.c.obj)
 .debug_aranges
                0x00000148       0x20 /home/chintal/code/toolchains/packages/msp430/lib/libmodbus-msp430f5529.a(dispatch.c.obj)
 .debug_aranges
                0x00000168       0x30 /home/chintal/code/toolchains/packages/msp430/lib/libmodbus-msp430f5529.a(uart.c.obj)
 .debug_aranges
                0x00000198       0x20 /home/chintal/code/toolchains/packages/msp430/lib/libmodbus-msp430f5529.a(special.c.obj)
 .debug_aranges
                0x000001b8       0x40 /home/chintal/code/toolchains/packages/msp430/lib/libmodbus-msp430f5529.a(regs.c.obj)
 .debug_aranges
                0x000001f8       0x30 /home/chintal/code/toolchains/packages/msp430/lib/libmodbus-msp430f5529.a(control.c.obj)
 .debug_aranges
                0x00000228       0x28 /home/chintal/code/toolchains/packages/msp430/lib/libmodbus-msp430f5529.a(bits.c.obj)
 .debug_aranges
                0x00000250       0x60 ../subsystem/libmodbus-if-msp430f5529.a(modbus_iface.c.obj)
 .debug_aranges
                0x000002b0       0xb0 /home/chintal/code/toolchains/packages/msp430/lib/libucdm-msp430f5529.a(ucdm.c.obj)
 .debug_aranges
                0x00000360       0x20 ../subsystem/libucdm-if-msp430f5529.a(ucdm_iface.c.obj)
 .debug_aranges
                0x00000380       0x88 /home/chintal/code/toolchains/packages/msp430/lib/libtime-msp430f5529.a(time.c.obj)
 .debug_aranges
                0x00000408       0x28 ../subsystem/libtime-if-msp430f5529.a(time_iface.c.obj)
 .debug_aranges
                0x00000430       0x58 ../uc-impl/usb-impl/libmsp430-usbapi-msp430f5529.a(usb_irq_handler.c.obj)
 .debug_aranges
                0x00000488      0x170 ../uc-impl/usb-impl/libmsp430-usbapi-msp430f5529.a(usb.c.obj)
 .debug_aranges
                0x000005f8       0x30 ../uc-impl/usb-impl/libmsp430-usbapi-msp430f5529.a(usbdma.c.obj)
 .debug_aranges
                0x00000628       0xf0 ../uc-impl/usb-impl/libmsp430-usbapi-msp430f5529.a(usbcdc.c.obj)
 .debug_aranges
                0x00000718       0x38 ../uc-impl/usb-impl/libmsp430-usbapi-msp430f5529.a(usb_event_handlers.c.obj)
 .debug_aranges
                0x00000750       0x18 ../uc-impl/usb-impl/libmsp430-usbapi-msp430f5529.a(descriptors.c.obj)
 .debug_aranges
                0x00000768       0x48 /home/chintal/code/toolchains/packages/msp430/lib/libds-msp430f5529.a(avltree.c.obj)
 .debug_aranges
                0x000007b0       0x78 /home/chintal/code/toolchains/packages/msp430/lib/libbytebuf-msp430f5529.a(bytebuf.c.obj)
 .debug_aranges
                0x00000828       0x20 ../uc-impl/libhal-uc-timer-msp430f5529.a(timer_impl.c.obj)
 .debug_aranges
                0x00000848       0xb8 /home/chintal/code/toolchains/packages/msp430/lib/libmsp430-driverlib-msp430f5529.a(dma.c.obj)
 .debug_aranges
                0x00000900       0x40 /home/chintal/code/toolchains/packages/msp430/lib/libmsp430-driverlib-msp430f5529.a(tlv.c.obj)
 .debug_aranges
                0x00000940      0x130 /home/chintal/code/toolchains/packages/msp430/lib/libmsp430-driverlib-msp430f5529.a(pmm.c.obj)
 .debug_aranges
                0x00000a70       0xf8 /home/chintal/code/toolchains/packages/msp430/lib/libmsp430-driverlib-msp430f5529.a(ucs.c.obj)
 .debug_aranges
                0x00000b68       0x50 /home/chintal/code/toolchains/packages/msp430/lib/libmsp430-driverlib-msp430f5529.a(sfr.c.obj)
 .debug_aranges
                0x00000bb8       0x78 /home/chintal/code/toolchains/packages/msp430/lib/libmsp430-driverlib-msp430f5529.a(gpio.c.obj)
 .debug_aranges
                0x00000c30       0x40 /home/chintal/code/toolchains/packages/msp430/lib/libmsp430-driverlib-msp430f5529.a(wdt_a.c.obj)

.debug_pubnames
 *(.debug_pubnames)

.debug_info     0x00000000     0xbba3
 *(.debug_info .gnu.linkonce.wi.*)
 .debug_info    0x00000000      0x753 CMakeFiles/firmware-msp430f5529.elf.dir/main.c.obj
 .debug_info    0x00000753      0x2b9 ../uc-impl/libhal-uc-core-msp430f5529.a(core_impl.c.obj)
 .debug_info    0x00000a0c       0xd9 ../uc-impl/libhal-uc-uart-msp430f5529.a(uart_handlers.c.obj)
 .debug_info    0x00000ae5      0x2bb ../uc-impl/libhal-uc-timer-msp430f5529.a(timer_handlers.c.obj)
 .debug_info    0x00000da0      0x5ae /home/chintal/code/toolchains/packages/msp430/lib/libmodbus-msp430f5529.a(modbus.c.obj)
 .debug_info    0x0000134e      0x328 /home/chintal/code/toolchains/packages/msp430/lib/libmodbus-msp430f5529.a(diagnostics.c.obj)
 .debug_info    0x00001676      0x34f /home/chintal/code/toolchains/packages/msp430/lib/libmodbus-msp430f5529.a(common.c.obj)
 .debug_info    0x000019c5      0x24d /home/chintal/code/toolchains/packages/msp430/lib/libmodbus-msp430f5529.a(dispatch.c.obj)
 .debug_info    0x00001c12      0x466 /home/chintal/code/toolchains/packages/msp430/lib/libmodbus-msp430f5529.a(uart.c.obj)
 .debug_info    0x00002078      0x168 /home/chintal/code/toolchains/packages/msp430/lib/libmodbus-msp430f5529.a(special.c.obj)
 .debug_info    0x000021e0      0x5a9 /home/chintal/code/toolchains/packages/msp430/lib/libmodbus-msp430f5529.a(regs.c.obj)
 .debug_info    0x00002789      0x4bd /home/chintal/code/toolchains/packages/msp430/lib/libmodbus-msp430f5529.a(control.c.obj)
 .debug_info    0x00002c46      0x2fc /home/chintal/code/toolchains/packages/msp430/lib/libmodbus-msp430f5529.a(bits.c.obj)
 .debug_info    0x00002f42      0x8c7 ../subsystem/libmodbus-if-msp430f5529.a(modbus_iface.c.obj)
 .debug_info    0x00003809      0xa4e /home/chintal/code/toolchains/packages/msp430/lib/libucdm-msp430f5529.a(ucdm.c.obj)
 .debug_info    0x00004257      0x430 ../subsystem/libucdm-if-msp430f5529.a(ucdm_iface.c.obj)
 .debug_info    0x00004687      0x84c /home/chintal/code/toolchains/packages/msp430/lib/libtime-msp430f5529.a(time.c.obj)
 .debug_info    0x00004ed3      0x719 ../subsystem/libtime-if-msp430f5529.a(time_iface.c.obj)
 .debug_info    0x000055ec      0x632 ../uc-impl/usb-impl/libmsp430-usbapi-msp430f5529.a(usb_irq_handler.c.obj)
 .debug_info    0x00005c1e     0x173c ../uc-impl/usb-impl/libmsp430-usbapi-msp430f5529.a(usb.c.obj)
 .debug_info    0x0000735a      0x3e7 ../uc-impl/usb-impl/libmsp430-usbapi-msp430f5529.a(usbdma.c.obj)
 .debug_info    0x00007741      0xf64 ../uc-impl/usb-impl/libmsp430-usbapi-msp430f5529.a(usbcdc.c.obj)
 .debug_info    0x000086a5      0x2a9 ../uc-impl/usb-impl/libmsp430-usbapi-msp430f5529.a(usb_event_handlers.c.obj)
 .debug_info    0x0000894e      0x750 ../uc-impl/usb-impl/libmsp430-usbapi-msp430f5529.a(descriptors.c.obj)
 .debug_info    0x0000909e      0x5c6 /home/chintal/code/toolchains/packages/msp430/lib/libds-msp430f5529.a(avltree.c.obj)
 .debug_info    0x00009664      0x75a /home/chintal/code/toolchains/packages/msp430/lib/libbytebuf-msp430f5529.a(bytebuf.c.obj)
 .debug_info    0x00009dbe      0x4b5 ../uc-impl/libhal-uc-timer-msp430f5529.a(timer_impl.c.obj)
 .debug_info    0x0000a273      0x3fe /home/chintal/code/toolchains/packages/msp430/lib/libmsp430-driverlib-msp430f5529.a(dma.c.obj)
 .debug_info    0x0000a671      0x2da /home/chintal/code/toolchains/packages/msp430/lib/libmsp430-driverlib-msp430f5529.a(tlv.c.obj)
 .debug_info    0x0000a94b      0x406 /home/chintal/code/toolchains/packages/msp430/lib/libmsp430-driverlib-msp430f5529.a(pmm.c.obj)
 .debug_info    0x0000ad51      0x732 /home/chintal/code/toolchains/packages/msp430/lib/libmsp430-driverlib-msp430f5529.a(ucs.c.obj)
 .debug_info    0x0000b483      0x18b /home/chintal/code/toolchains/packages/msp430/lib/libmsp430-driverlib-msp430f5529.a(sfr.c.obj)
 .debug_info    0x0000b60e      0x3f1 /home/chintal/code/toolchains/packages/msp430/lib/libmsp430-driverlib-msp430f5529.a(gpio.c.obj)
 .debug_info    0x0000b9ff      0x1a4 /home/chintal/code/toolchains/packages/msp430/lib/libmsp430-driverlib-msp430f5529.a(wdt_a.c.obj)

.debug_abbrev   0x00000000     0x3642
 *(.debug_abbrev)
 .debug_abbrev  0x00000000      0x1fa CMakeFiles/firmware-msp430f5529.elf.dir/main.c.obj
 .debug_abbrev  0x000001fa       0xd4 ../uc-impl/libhal-uc-core-msp430f5529.a(core_impl.c.obj)
 .debug_abbrev  0x000002ce       0x6f ../uc-impl/libhal-uc-uart-msp430f5529.a(uart_handlers.c.obj)
 .debug_abbrev  0x0000033d       0xea ../uc-impl/libhal-uc-timer-msp430f5529.a(timer_handlers.c.obj)
 .debug_abbrev  0x00000427      0x241 /home/chintal/code/toolchains/packages/msp430/lib/libmodbus-msp430f5529.a(modbus.c.obj)
 .debug_abbrev  0x00000668      0x13e /home/chintal/code/toolchains/packages/msp430/lib/libmodbus-msp430f5529.a(diagnostics.c.obj)
 .debug_abbrev  0x000007a6      0x186 /home/chintal/code/toolchains/packages/msp430/lib/libmodbus-msp430f5529.a(common.c.obj)
 .debug_abbrev  0x0000092c       0xf6 /home/chintal/code/toolchains/packages/msp430/lib/libmodbus-msp430f5529.a(dispatch.c.obj)
 .debug_abbrev  0x00000a22      0x1ed /home/chintal/code/toolchains/packages/msp430/lib/libmodbus-msp430f5529.a(uart.c.obj)
 .debug_abbrev  0x00000c0f       0xba /home/chintal/code/toolchains/packages/msp430/lib/libmodbus-msp430f5529.a(special.c.obj)
 .debug_abbrev  0x00000cc9      0x189 /home/chintal/code/toolchains/packages/msp430/lib/libmodbus-msp430f5529.a(regs.c.obj)
 .debug_abbrev  0x00000e52      0x198 /home/chintal/code/toolchains/packages/msp430/lib/libmodbus-msp430f5529.a(control.c.obj)
 .debug_abbrev  0x00000fea      0x164 /home/chintal/code/toolchains/packages/msp430/lib/libmodbus-msp430f5529.a(bits.c.obj)
 .debug_abbrev  0x0000114e      0x22f ../subsystem/libmodbus-if-msp430f5529.a(modbus_iface.c.obj)
 .debug_abbrev  0x0000137d      0x326 /home/chintal/code/toolchains/packages/msp430/lib/libucdm-msp430f5529.a(ucdm.c.obj)
 .debug_abbrev  0x000016a3      0x189 ../subsystem/libucdm-if-msp430f5529.a(ucdm_iface.c.obj)
 .debug_abbrev  0x0000182c      0x309 /home/chintal/code/toolchains/packages/msp430/lib/libtime-msp430f5529.a(time.c.obj)
 .debug_abbrev  0x00001b35      0x1f3 ../subsystem/libtime-if-msp430f5529.a(time_iface.c.obj)
 .debug_abbrev  0x00001d28      0x20d ../uc-impl/usb-impl/libmsp430-usbapi-msp430f5529.a(usb_irq_handler.c.obj)
 .debug_abbrev  0x00001f35      0x367 ../uc-impl/usb-impl/libmsp430-usbapi-msp430f5529.a(usb.c.obj)
 .debug_abbrev  0x0000229c      0x1c4 ../uc-impl/usb-impl/libmsp430-usbapi-msp430f5529.a(usbdma.c.obj)
 .debug_abbrev  0x00002460      0x373 ../uc-impl/usb-impl/libmsp430-usbapi-msp430f5529.a(usbcdc.c.obj)
 .debug_abbrev  0x000027d3      0x125 ../uc-impl/usb-impl/libmsp430-usbapi-msp430f5529.a(usb_event_handlers.c.obj)
 .debug_abbrev  0x000028f8       0xf9 ../uc-impl/usb-impl/libmsp430-usbapi-msp430f5529.a(descriptors.c.obj)
 .debug_abbrev  0x000029f1      0x201 /home/chintal/code/toolchains/packages/msp430/lib/libds-msp430f5529.a(avltree.c.obj)
 .debug_abbrev  0x00002bf2      0x1e7 /home/chintal/code/toolchains/packages/msp430/lib/libbytebuf-msp430f5529.a(bytebuf.c.obj)
 .debug_abbrev  0x00002dd9      0x199 ../uc-impl/libhal-uc-timer-msp430f5529.a(timer_impl.c.obj)
 .debug_abbrev  0x00002f72       0xef /home/chintal/code/toolchains/packages/msp430/lib/libmsp430-driverlib-msp430f5529.a(dma.c.obj)
 .debug_abbrev  0x00003061      0x124 /home/chintal/code/toolchains/packages/msp430/lib/libmsp430-driverlib-msp430f5529.a(tlv.c.obj)
 .debug_abbrev  0x00003185       0xf5 /home/chintal/code/toolchains/packages/msp430/lib/libmsp430-driverlib-msp430f5529.a(pmm.c.obj)
 .debug_abbrev  0x0000327a      0x17d /home/chintal/code/toolchains/packages/msp430/lib/libmsp430-driverlib-msp430f5529.a(ucs.c.obj)
 .debug_abbrev  0x000033f7       0xa1 /home/chintal/code/toolchains/packages/msp430/lib/libmsp430-driverlib-msp430f5529.a(sfr.c.obj)
 .debug_abbrev  0x00003498      0x109 /home/chintal/code/toolchains/packages/msp430/lib/libmsp430-driverlib-msp430f5529.a(gpio.c.obj)
 .debug_abbrev  0x000035a1       0xa1 /home/chintal/code/toolchains/packages/msp430/lib/libmsp430-driverlib-msp430f5529.a(wdt_a.c.obj)

.debug_frame    0x00000000     0x1a7c
 *(.debug_frame)
 .debug_frame   0x00000000       0x30 CMakeFiles/firmware-msp430f5529.elf.dir/main.c.obj
 .debug_frame   0x00000030       0x50 ../uc-impl/libhal-uc-core-msp430f5529.a(core_impl.c.obj)
 .debug_frame   0x00000080       0x30 ../uc-impl/libhal-uc-timer-msp430f5529.a(timer_handlers.c.obj)
 .debug_frame   0x000000b0       0x80 /home/chintal/code/toolchains/packages/msp430/lib/libmodbus-msp430f5529.a(modbus.c.obj)
 .debug_frame   0x00000130       0x64 /home/chintal/code/toolchains/packages/msp430/lib/libmodbus-msp430f5529.a(diagnostics.c.obj)
 .debug_frame   0x00000194       0x60 /home/chintal/code/toolchains/packages/msp430/lib/libmodbus-msp430f5529.a(common.c.obj)
 .debug_frame   0x000001f4       0x30 /home/chintal/code/toolchains/packages/msp430/lib/libmodbus-msp430f5529.a(dispatch.c.obj)
 .debug_frame   0x00000224       0x68 /home/chintal/code/toolchains/packages/msp430/lib/libmodbus-msp430f5529.a(uart.c.obj)
 .debug_frame   0x0000028c       0x64 /home/chintal/code/toolchains/packages/msp430/lib/libmodbus-msp430f5529.a(special.c.obj)
 .debug_frame   0x000002f0       0xbc /home/chintal/code/toolchains/packages/msp430/lib/libmodbus-msp430f5529.a(regs.c.obj)
 .debug_frame   0x000003ac       0x50 /home/chintal/code/toolchains/packages/msp430/lib/libmodbus-msp430f5529.a(control.c.obj)
 .debug_frame   0x000003fc       0x44 /home/chintal/code/toolchains/packages/msp430/lib/libmodbus-msp430f5529.a(bits.c.obj)
 .debug_frame   0x00000440       0xb0 ../subsystem/libmodbus-if-msp430f5529.a(modbus_iface.c.obj)
 .debug_frame   0x000004f0      0x17c /home/chintal/code/toolchains/packages/msp430/lib/libucdm-msp430f5529.a(ucdm.c.obj)
 .debug_frame   0x0000066c       0x34 ../subsystem/libucdm-if-msp430f5529.a(ucdm_iface.c.obj)
 .debug_frame   0x000006a0      0x1a0 /home/chintal/code/toolchains/packages/msp430/lib/libtime-msp430f5529.a(time.c.obj)
 .debug_frame   0x00000840       0x40 ../subsystem/libtime-if-msp430f5529.a(time_iface.c.obj)
 .debug_frame   0x00000880       0xc0 ../uc-impl/usb-impl/libmsp430-usbapi-msp430f5529.a(usb_irq_handler.c.obj)
 .debug_frame   0x00000940      0x354 ../uc-impl/usb-impl/libmsp430-usbapi-msp430f5529.a(usb.c.obj)
 .debug_frame   0x00000c94       0x68 ../uc-impl/usb-impl/libmsp430-usbapi-msp430f5529.a(usbdma.c.obj)
 .debug_frame   0x00000cfc      0x284 ../uc-impl/usb-impl/libmsp430-usbapi-msp430f5529.a(usbcdc.c.obj)
 .debug_frame   0x00000f80       0xa4 ../uc-impl/usb-impl/libmsp430-usbapi-msp430f5529.a(usb_event_handlers.c.obj)
 .debug_frame   0x00001024       0xac /home/chintal/code/toolchains/packages/msp430/lib/libds-msp430f5529.a(avltree.c.obj)
 .debug_frame   0x000010d0      0x124 /home/chintal/code/toolchains/packages/msp430/lib/libbytebuf-msp430f5529.a(bytebuf.c.obj)
 .debug_frame   0x000011f4       0x24 ../uc-impl/libhal-uc-timer-msp430f5529.a(timer_impl.c.obj)
 .debug_frame   0x00001218      0x170 /home/chintal/code/toolchains/packages/msp430/lib/libmsp430-driverlib-msp430f5529.a(dma.c.obj)
 .debug_frame   0x00001388       0xac /home/chintal/code/toolchains/packages/msp430/lib/libmsp430-driverlib-msp430f5529.a(tlv.c.obj)
 .debug_frame   0x00001434      0x274 /home/chintal/code/toolchains/packages/msp430/lib/libmsp430-driverlib-msp430f5529.a(pmm.c.obj)
 .debug_frame   0x000016a8      0x218 /home/chintal/code/toolchains/packages/msp430/lib/libmsp430-driverlib-msp430f5529.a(ucs.c.obj)
 .debug_frame   0x000018c0       0x84 /home/chintal/code/toolchains/packages/msp430/lib/libmsp430-driverlib-msp430f5529.a(sfr.c.obj)
 .debug_frame   0x00001944       0xd4 /home/chintal/code/toolchains/packages/msp430/lib/libmsp430-driverlib-msp430f5529.a(gpio.c.obj)
 .debug_frame   0x00001a18       0x64 /home/chintal/code/toolchains/packages/msp430/lib/libmsp430-driverlib-msp430f5529.a(wdt_a.c.obj)

.debug_str      0x00000000     0x471d
 *(.debug_str)
 .debug_str     0x00000000      0x4eb CMakeFiles/firmware-msp430f5529.elf.dir/main.c.obj
                                0x571 (size before relaxing)
 .debug_str     0x000004eb      0x15d ../uc-impl/libhal-uc-core-msp430f5529.a(core_impl.c.obj)
                                0x28c (size before relaxing)
 .debug_str     0x00000648       0x7b ../uc-impl/libhal-uc-uart-msp430f5529.a(uart_handlers.c.obj)
                                0x1c2 (size before relaxing)
 .debug_str     0x000006c3       0xc5 ../uc-impl/libhal-uc-timer-msp430f5529.a(timer_handlers.c.obj)
                                0x37f (size before relaxing)
 .debug_str     0x00000788      0x31a /home/chintal/code/toolchains/packages/msp430/lib/libmodbus-msp430f5529.a(modbus.c.obj)
                                0x4c4 (size before relaxing)
 .debug_str     0x00000aa2      0x1d9 /home/chintal/code/toolchains/packages/msp430/lib/libmodbus-msp430f5529.a(diagnostics.c.obj)
                                0x33e (size before relaxing)
 .debug_str     0x00000c7b       0x9a /home/chintal/code/toolchains/packages/msp430/lib/libmodbus-msp430f5529.a(common.c.obj)
                                0x32f (size before relaxing)
 .debug_str     0x00000d15      0x1b4 /home/chintal/code/toolchains/packages/msp430/lib/libmodbus-msp430f5529.a(dispatch.c.obj)
                                0x325 (size before relaxing)
 .debug_str     0x00000ec9       0xff /home/chintal/code/toolchains/packages/msp430/lib/libmodbus-msp430f5529.a(uart.c.obj)
                                0x417 (size before relaxing)
 .debug_str     0x00000fc8       0x5f /home/chintal/code/toolchains/packages/msp430/lib/libmodbus-msp430f5529.a(special.c.obj)
                                0x20a (size before relaxing)
 .debug_str     0x00001027      0x114 /home/chintal/code/toolchains/packages/msp430/lib/libmodbus-msp430f5529.a(regs.c.obj)
                                0x3e9 (size before relaxing)
 .debug_str     0x0000113b       0xe4 /home/chintal/code/toolchains/packages/msp430/lib/libmodbus-msp430f5529.a(control.c.obj)
                                0x511 (size before relaxing)
 .debug_str     0x0000121f       0x97 /home/chintal/code/toolchains/packages/msp430/lib/libmodbus-msp430f5529.a(bits.c.obj)
                                0x316 (size before relaxing)
 .debug_str     0x000012b6      0x24b ../subsystem/libmodbus-if-msp430f5529.a(modbus_iface.c.obj)
                                0x668 (size before relaxing)
 .debug_str     0x00001501      0x2ce /home/chintal/code/toolchains/packages/msp430/lib/libucdm-msp430f5529.a(ucdm.c.obj)
                                0x4ea (size before relaxing)
 .debug_str     0x000017cf       0x7a ../subsystem/libucdm-if-msp430f5529.a(ucdm_iface.c.obj)
                                0x41b (size before relaxing)
 .debug_str     0x00001849      0x29f /home/chintal/code/toolchains/packages/msp430/lib/libtime-msp430f5529.a(time.c.obj)
                                0x432 (size before relaxing)
 .debug_str     0x00001ae8      0x312 ../subsystem/libtime-if-msp430f5529.a(time_iface.c.obj)
                                0x6c9 (size before relaxing)
 .debug_str     0x00001dfa      0x393 ../uc-impl/usb-impl/libmsp430-usbapi-msp430f5529.a(usb_irq_handler.c.obj)
                                0x5ab (size before relaxing)
 .debug_str     0x0000218d      0xdfb ../uc-impl/usb-impl/libmsp430-usbapi-msp430f5529.a(usb.c.obj)
                               0x122e (size before relaxing)
 .debug_str     0x00002f88      0x22e ../uc-impl/usb-impl/libmsp430-usbapi-msp430f5529.a(usbdma.c.obj)
                                0x38f (size before relaxing)
 .debug_str     0x000031b6      0x3be ../uc-impl/usb-impl/libmsp430-usbapi-msp430f5529.a(usbcdc.c.obj)
                                0x9b9 (size before relaxing)
 .debug_str     0x00003574       0x93 ../uc-impl/usb-impl/libmsp430-usbapi-msp430f5529.a(usb_event_handlers.c.obj)
                                0x336 (size before relaxing)
 .debug_str     0x00003607       0x82 ../uc-impl/usb-impl/libmsp430-usbapi-msp430f5529.a(descriptors.c.obj)
                                0x9d0 (size before relaxing)
 .debug_str     0x00003689      0x11a /home/chintal/code/toolchains/packages/msp430/lib/libds-msp430f5529.a(avltree.c.obj)
                                0x2a4 (size before relaxing)
 .debug_str     0x000037a3      0x167 /home/chintal/code/toolchains/packages/msp430/lib/libbytebuf-msp430f5529.a(bytebuf.c.obj)
                                0x30b (size before relaxing)
 .debug_str     0x0000390a       0xe2 ../uc-impl/libhal-uc-timer-msp430f5529.a(timer_impl.c.obj)
                                0x577 (size before relaxing)
 .debug_str     0x000039ec      0x192 /home/chintal/code/toolchains/packages/msp430/lib/libmsp430-driverlib-msp430f5529.a(dma.c.obj)
                                0x3e4 (size before relaxing)
 .debug_str     0x00003b7e       0xed /home/chintal/code/toolchains/packages/msp430/lib/libmsp430-driverlib-msp430f5529.a(tlv.c.obj)
                                0x207 (size before relaxing)
 .debug_str     0x00003c6b      0x37e /home/chintal/code/toolchains/packages/msp430/lib/libmsp430-driverlib-msp430f5529.a(pmm.c.obj)
                                0x4b3 (size before relaxing)
 .debug_str     0x00003fe9      0x3b2 /home/chintal/code/toolchains/packages/msp430/lib/libmsp430-driverlib-msp430f5529.a(ucs.c.obj)
                                0x580 (size before relaxing)
 .debug_str     0x0000439b      0x124 /home/chintal/code/toolchains/packages/msp430/lib/libmsp430-driverlib-msp430f5529.a(sfr.c.obj)
                                0x247 (size before relaxing)
 .debug_str     0x000044bf      0x1a0 /home/chintal/code/toolchains/packages/msp430/lib/libmsp430-driverlib-msp430f5529.a(gpio.c.obj)
                                0x308 (size before relaxing)
 .debug_str     0x0000465f       0xbe /home/chintal/code/toolchains/packages/msp430/lib/libmsp430-driverlib-msp430f5529.a(wdt_a.c.obj)
                                0x1e9 (size before relaxing)

.debug_loc      0x00000000     0x4f5c
 *(.debug_loc)
 .debug_loc     0x00000000       0xce CMakeFiles/firmware-msp430f5529.elf.dir/main.c.obj
 .debug_loc     0x000000ce      0x19a /home/chintal/code/toolchains/packages/msp430/lib/libmodbus-msp430f5529.a(modbus.c.obj)
 .debug_loc     0x00000268       0x9e /home/chintal/code/toolchains/packages/msp430/lib/libmodbus-msp430f5529.a(common.c.obj)
 .debug_loc     0x00000306       0xc7 /home/chintal/code/toolchains/packages/msp430/lib/libmodbus-msp430f5529.a(dispatch.c.obj)
 .debug_loc     0x000003cd       0x84 /home/chintal/code/toolchains/packages/msp430/lib/libmodbus-msp430f5529.a(uart.c.obj)
 .debug_loc     0x00000451      0x39b /home/chintal/code/toolchains/packages/msp430/lib/libmodbus-msp430f5529.a(regs.c.obj)
 .debug_loc     0x000007ec      0x2de /home/chintal/code/toolchains/packages/msp430/lib/libmodbus-msp430f5529.a(control.c.obj)
 .debug_loc     0x00000aca       0x3c /home/chintal/code/toolchains/packages/msp430/lib/libmodbus-msp430f5529.a(bits.c.obj)
 .debug_loc     0x00000b06      0x303 ../subsystem/libmodbus-if-msp430f5529.a(modbus_iface.c.obj)
 .debug_loc     0x00000e09      0x6f2 /home/chintal/code/toolchains/packages/msp430/lib/libucdm-msp430f5529.a(ucdm.c.obj)
 .debug_loc     0x000014fb       0x2a ../subsystem/libucdm-if-msp430f5529.a(ucdm_iface.c.obj)
 .debug_loc     0x00001525      0x4cd /home/chintal/code/toolchains/packages/msp430/lib/libtime-msp430f5529.a(time.c.obj)
 .debug_loc     0x000019f2      0x12c ../subsystem/libtime-if-msp430f5529.a(time_iface.c.obj)
 .debug_loc     0x00001b1e      0x1e9 ../uc-impl/usb-impl/libmsp430-usbapi-msp430f5529.a(usb_irq_handler.c.obj)
 .debug_loc     0x00001d07      0x818 ../uc-impl/usb-impl/libmsp430-usbapi-msp430f5529.a(usb.c.obj)
 .debug_loc     0x0000251f      0x143 ../uc-impl/usb-impl/libmsp430-usbapi-msp430f5529.a(usbdma.c.obj)
 .debug_loc     0x00002662      0xa44 ../uc-impl/usb-impl/libmsp430-usbapi-msp430f5529.a(usbcdc.c.obj)
 .debug_loc     0x000030a6       0x42 ../uc-impl/usb-impl/libmsp430-usbapi-msp430f5529.a(usb_event_handlers.c.obj)
 .debug_loc     0x000030e8      0x469 /home/chintal/code/toolchains/packages/msp430/lib/libds-msp430f5529.a(avltree.c.obj)
 .debug_loc     0x00003551      0x752 /home/chintal/code/toolchains/packages/msp430/lib/libbytebuf-msp430f5529.a(bytebuf.c.obj)
 .debug_loc     0x00003ca3       0xd6 ../uc-impl/libhal-uc-timer-msp430f5529.a(timer_impl.c.obj)
 .debug_loc     0x00003d79      0x16a /home/chintal/code/toolchains/packages/msp430/lib/libmsp430-driverlib-msp430f5529.a(dma.c.obj)
 .debug_loc     0x00003ee3      0x214 /home/chintal/code/toolchains/packages/msp430/lib/libmsp430-driverlib-msp430f5529.a(tlv.c.obj)
 .debug_loc     0x000040f7      0x1ae /home/chintal/code/toolchains/packages/msp430/lib/libmsp430-driverlib-msp430f5529.a(pmm.c.obj)
 .debug_loc     0x000042a5      0xa0c /home/chintal/code/toolchains/packages/msp430/lib/libmsp430-driverlib-msp430f5529.a(ucs.c.obj)
 .debug_loc     0x00004cb1       0x21 /home/chintal/code/toolchains/packages/msp430/lib/libmsp430-driverlib-msp430f5529.a(sfr.c.obj)
 .debug_loc     0x00004cd2      0x1bb /home/chintal/code/toolchains/packages/msp430/lib/libmsp430-driverlib-msp430f5529.a(gpio.c.obj)
 .debug_loc     0x00004e8d       0xcf /home/chintal/code/toolchains/packages/msp430/lib/libmsp430-driverlib-msp430f5529.a(wdt_a.c.obj)

.debug_macinfo
 *(.debug_macinfo)

.debug_weaknames
 *(.debug_weaknames)

.debug_funcnames
 *(.debug_funcnames)

.debug_typenames
 *(.debug_typenames)

.debug_varnames
 *(.debug_varnames)

.debug_pubtypes
 *(.debug_pubtypes)

.debug_ranges   0x00000000      0xca0
 *(.debug_ranges)
 .debug_ranges  0x00000000       0x10 CMakeFiles/firmware-msp430f5529.elf.dir/main.c.obj
 .debug_ranges  0x00000010       0x20 ../uc-impl/libhal-uc-core-msp430f5529.a(core_impl.c.obj)
 .debug_ranges  0x00000030       0x28 ../uc-impl/libhal-uc-timer-msp430f5529.a(timer_handlers.c.obj)
 .debug_ranges  0x00000058       0x38 /home/chintal/code/toolchains/packages/msp430/lib/libmodbus-msp430f5529.a(modbus.c.obj)
 .debug_ranges  0x00000090       0x30 /home/chintal/code/toolchains/packages/msp430/lib/libmodbus-msp430f5529.a(diagnostics.c.obj)
 .debug_ranges  0x000000c0       0x28 /home/chintal/code/toolchains/packages/msp430/lib/libmodbus-msp430f5529.a(common.c.obj)
 .debug_ranges  0x000000e8       0x10 /home/chintal/code/toolchains/packages/msp430/lib/libmodbus-msp430f5529.a(dispatch.c.obj)
 .debug_ranges  0x000000f8       0x20 /home/chintal/code/toolchains/packages/msp430/lib/libmodbus-msp430f5529.a(uart.c.obj)
 .debug_ranges  0x00000118       0x10 /home/chintal/code/toolchains/packages/msp430/lib/libmodbus-msp430f5529.a(special.c.obj)
 .debug_ranges  0x00000128       0x30 /home/chintal/code/toolchains/packages/msp430/lib/libmodbus-msp430f5529.a(regs.c.obj)
 .debug_ranges  0x00000158       0x20 /home/chintal/code/toolchains/packages/msp430/lib/libmodbus-msp430f5529.a(control.c.obj)
 .debug_ranges  0x00000178       0x18 /home/chintal/code/toolchains/packages/msp430/lib/libmodbus-msp430f5529.a(bits.c.obj)
 .debug_ranges  0x00000190       0x68 ../subsystem/libmodbus-if-msp430f5529.a(modbus_iface.c.obj)
 .debug_ranges  0x000001f8      0x100 /home/chintal/code/toolchains/packages/msp430/lib/libucdm-msp430f5529.a(ucdm.c.obj)
 .debug_ranges  0x000002f8       0x10 ../subsystem/libucdm-if-msp430f5529.a(ucdm_iface.c.obj)
 .debug_ranges  0x00000308       0x90 /home/chintal/code/toolchains/packages/msp430/lib/libtime-msp430f5529.a(time.c.obj)
 .debug_ranges  0x00000398       0x30 ../subsystem/libtime-if-msp430f5529.a(time_iface.c.obj)
 .debug_ranges  0x000003c8       0x90 ../uc-impl/usb-impl/libmsp430-usbapi-msp430f5529.a(usb_irq_handler.c.obj)
 .debug_ranges  0x00000458      0x288 ../uc-impl/usb-impl/libmsp430-usbapi-msp430f5529.a(usb.c.obj)
 .debug_ranges  0x000006e0       0x20 ../uc-impl/usb-impl/libmsp430-usbapi-msp430f5529.a(usbdma.c.obj)
 .debug_ranges  0x00000700       0xf8 ../uc-impl/usb-impl/libmsp430-usbapi-msp430f5529.a(usbcdc.c.obj)
 .debug_ranges  0x000007f8       0x28 ../uc-impl/usb-impl/libmsp430-usbapi-msp430f5529.a(usb_event_handlers.c.obj)
 .debug_ranges  0x00000820       0x38 /home/chintal/code/toolchains/packages/msp430/lib/libds-msp430f5529.a(avltree.c.obj)
 .debug_ranges  0x00000858       0x80 /home/chintal/code/toolchains/packages/msp430/lib/libbytebuf-msp430f5529.a(bytebuf.c.obj)
 .debug_ranges  0x000008d8       0x10 ../uc-impl/libhal-uc-timer-msp430f5529.a(timer_impl.c.obj)
 .debug_ranges  0x000008e8       0xa8 /home/chintal/code/toolchains/packages/msp430/lib/libmsp430-driverlib-msp430f5529.a(dma.c.obj)
 .debug_ranges  0x00000990       0x30 /home/chintal/code/toolchains/packages/msp430/lib/libmsp430-driverlib-msp430f5529.a(tlv.c.obj)
 .debug_ranges  0x000009c0      0x120 /home/chintal/code/toolchains/packages/msp430/lib/libmsp430-driverlib-msp430f5529.a(pmm.c.obj)
 .debug_ranges  0x00000ae0       0xe8 /home/chintal/code/toolchains/packages/msp430/lib/libmsp430-driverlib-msp430f5529.a(ucs.c.obj)
 .debug_ranges  0x00000bc8       0x40 /home/chintal/code/toolchains/packages/msp430/lib/libmsp430-driverlib-msp430f5529.a(sfr.c.obj)
 .debug_ranges  0x00000c08       0x68 /home/chintal/code/toolchains/packages/msp430/lib/libmsp430-driverlib-msp430f5529.a(gpio.c.obj)
 .debug_ranges  0x00000c70       0x30 /home/chintal/code/toolchains/packages/msp430/lib/libmsp430-driverlib-msp430f5529.a(wdt_a.c.obj)

.debug_macro
 *(.debug_macro)

/DISCARD/
 *(.note.GNU-stack)
                [!provide]                PROVIDE (ADC12CTL0, 0x700)
                [!provide]                PROVIDE (ADC12CTL0_L, 0x700)
                [!provide]                PROVIDE (ADC12CTL0_H, 0x701)
                [!provide]                PROVIDE (ADC12CTL1, 0x702)
                [!provide]                PROVIDE (ADC12CTL1_L, 0x702)
                [!provide]                PROVIDE (ADC12CTL1_H, 0x703)
                [!provide]                PROVIDE (ADC12CTL2, 0x704)
                [!provide]                PROVIDE (ADC12CTL2_L, 0x704)
                [!provide]                PROVIDE (ADC12CTL2_H, 0x705)
                [!provide]                PROVIDE (ADC12IFG, 0x70a)
                [!provide]                PROVIDE (ADC12IFG_L, 0x70a)
                [!provide]                PROVIDE (ADC12IFG_H, 0x70b)
                [!provide]                PROVIDE (ADC12IE, 0x70c)
                [!provide]                PROVIDE (ADC12IE_L, 0x70c)
                [!provide]                PROVIDE (ADC12IE_H, 0x70d)
                [!provide]                PROVIDE (ADC12IV, 0x70e)
                [!provide]                PROVIDE (ADC12IV_L, 0x70e)
                [!provide]                PROVIDE (ADC12IV_H, 0x70f)
                [!provide]                PROVIDE (ADC12MEM0, 0x720)
                [!provide]                PROVIDE (ADC12MEM0_L, 0x720)
                [!provide]                PROVIDE (ADC12MEM0_H, 0x721)
                [!provide]                PROVIDE (ADC12MEM1, 0x722)
                [!provide]                PROVIDE (ADC12MEM1_L, 0x722)
                [!provide]                PROVIDE (ADC12MEM1_H, 0x723)
                [!provide]                PROVIDE (ADC12MEM2, 0x724)
                [!provide]                PROVIDE (ADC12MEM2_L, 0x724)
                [!provide]                PROVIDE (ADC12MEM2_H, 0x725)
                [!provide]                PROVIDE (ADC12MEM3, 0x726)
                [!provide]                PROVIDE (ADC12MEM3_L, 0x726)
                [!provide]                PROVIDE (ADC12MEM3_H, 0x727)
                [!provide]                PROVIDE (ADC12MEM4, 0x728)
                [!provide]                PROVIDE (ADC12MEM4_L, 0x728)
                [!provide]                PROVIDE (ADC12MEM4_H, 0x729)
                [!provide]                PROVIDE (ADC12MEM5, 0x72a)
                [!provide]                PROVIDE (ADC12MEM5_L, 0x72a)
                [!provide]                PROVIDE (ADC12MEM5_H, 0x72b)
                [!provide]                PROVIDE (ADC12MEM6, 0x72c)
                [!provide]                PROVIDE (ADC12MEM6_L, 0x72c)
                [!provide]                PROVIDE (ADC12MEM6_H, 0x72d)
                [!provide]                PROVIDE (ADC12MEM7, 0x72e)
                [!provide]                PROVIDE (ADC12MEM7_L, 0x72e)
                [!provide]                PROVIDE (ADC12MEM7_H, 0x72f)
                [!provide]                PROVIDE (ADC12MEM8, 0x730)
                [!provide]                PROVIDE (ADC12MEM8_L, 0x730)
                [!provide]                PROVIDE (ADC12MEM8_H, 0x731)
                [!provide]                PROVIDE (ADC12MEM9, 0x732)
                [!provide]                PROVIDE (ADC12MEM9_L, 0x732)
                [!provide]                PROVIDE (ADC12MEM9_H, 0x733)
                [!provide]                PROVIDE (ADC12MEM10, 0x734)
                [!provide]                PROVIDE (ADC12MEM10_L, 0x734)
                [!provide]                PROVIDE (ADC12MEM10_H, 0x735)
                [!provide]                PROVIDE (ADC12MEM11, 0x736)
                [!provide]                PROVIDE (ADC12MEM11_L, 0x736)
                [!provide]                PROVIDE (ADC12MEM11_H, 0x737)
                [!provide]                PROVIDE (ADC12MEM12, 0x738)
                [!provide]                PROVIDE (ADC12MEM12_L, 0x738)
                [!provide]                PROVIDE (ADC12MEM12_H, 0x739)
                [!provide]                PROVIDE (ADC12MEM13, 0x73a)
                [!provide]                PROVIDE (ADC12MEM13_L, 0x73a)
                [!provide]                PROVIDE (ADC12MEM13_H, 0x73b)
                [!provide]                PROVIDE (ADC12MEM14, 0x73c)
                [!provide]                PROVIDE (ADC12MEM14_L, 0x73c)
                [!provide]                PROVIDE (ADC12MEM14_H, 0x73d)
                [!provide]                PROVIDE (ADC12MEM15, 0x73e)
                [!provide]                PROVIDE (ADC12MEM15_L, 0x73e)
                [!provide]                PROVIDE (ADC12MEM15_H, 0x73f)
                [!provide]                PROVIDE (ADC12MCTL0, 0x710)
                [!provide]                PROVIDE (ADC12MCTL1, 0x711)
                [!provide]                PROVIDE (ADC12MCTL2, 0x712)
                [!provide]                PROVIDE (ADC12MCTL3, 0x713)
                [!provide]                PROVIDE (ADC12MCTL4, 0x714)
                [!provide]                PROVIDE (ADC12MCTL5, 0x715)
                [!provide]                PROVIDE (ADC12MCTL6, 0x716)
                [!provide]                PROVIDE (ADC12MCTL7, 0x717)
                [!provide]                PROVIDE (ADC12MCTL8, 0x718)
                [!provide]                PROVIDE (ADC12MCTL9, 0x719)
                [!provide]                PROVIDE (ADC12MCTL10, 0x71a)
                [!provide]                PROVIDE (ADC12MCTL11, 0x71b)
                [!provide]                PROVIDE (ADC12MCTL12, 0x71c)
                [!provide]                PROVIDE (ADC12MCTL13, 0x71d)
                [!provide]                PROVIDE (ADC12MCTL14, 0x71e)
                [!provide]                PROVIDE (ADC12MCTL15, 0x71f)
                [!provide]                PROVIDE (CBCTL0, 0x8c0)
                [!provide]                PROVIDE (CBCTL0_L, 0x8c0)
                [!provide]                PROVIDE (CBCTL0_H, 0x8c1)
                [!provide]                PROVIDE (CBCTL1, 0x8c2)
                [!provide]                PROVIDE (CBCTL1_L, 0x8c2)
                [!provide]                PROVIDE (CBCTL1_H, 0x8c3)
                [!provide]                PROVIDE (CBCTL2, 0x8c4)
                [!provide]                PROVIDE (CBCTL2_L, 0x8c4)
                [!provide]                PROVIDE (CBCTL2_H, 0x8c5)
                [!provide]                PROVIDE (CBCTL3, 0x8c6)
                [!provide]                PROVIDE (CBCTL3_L, 0x8c6)
                [!provide]                PROVIDE (CBCTL3_H, 0x8c7)
                [!provide]                PROVIDE (CBINT, 0x8cc)
                [!provide]                PROVIDE (CBINT_L, 0x8cc)
                [!provide]                PROVIDE (CBINT_H, 0x8cd)
                [!provide]                PROVIDE (CBIV, 0x8ce)
                [!provide]                PROVIDE (CRCDI, 0x150)
                [!provide]                PROVIDE (CRCDI_L, 0x150)
                [!provide]                PROVIDE (CRCDI_H, 0x151)
                [!provide]                PROVIDE (CRCDIRB, 0x152)
                [!provide]                PROVIDE (CRCDIRB_L, 0x152)
                [!provide]                PROVIDE (CRCDIRB_H, 0x153)
                [!provide]                PROVIDE (CRCINIRES, 0x154)
                [!provide]                PROVIDE (CRCINIRES_L, 0x154)
                [!provide]                PROVIDE (CRCINIRES_H, 0x155)
                [!provide]                PROVIDE (CRCRESR, 0x156)
                [!provide]                PROVIDE (CRCRESR_L, 0x156)
                [!provide]                PROVIDE (CRCRESR_H, 0x157)
                [!provide]                PROVIDE (DMACTL0, 0x500)
                [!provide]                PROVIDE (DMACTL0_L, 0x500)
                [!provide]                PROVIDE (DMACTL0_H, 0x501)
                [!provide]                PROVIDE (DMACTL1, 0x502)
                [!provide]                PROVIDE (DMACTL1_L, 0x502)
                [!provide]                PROVIDE (DMACTL1_H, 0x503)
                [!provide]                PROVIDE (DMACTL2, 0x504)
                [!provide]                PROVIDE (DMACTL2_L, 0x504)
                [!provide]                PROVIDE (DMACTL2_H, 0x505)
                [!provide]                PROVIDE (DMACTL3, 0x506)
                [!provide]                PROVIDE (DMACTL3_L, 0x506)
                [!provide]                PROVIDE (DMACTL3_H, 0x507)
                [!provide]                PROVIDE (DMACTL4, 0x508)
                [!provide]                PROVIDE (DMACTL4_L, 0x508)
                [!provide]                PROVIDE (DMACTL4_H, 0x509)
                [!provide]                PROVIDE (DMAIV, 0x50e)
                [!provide]                PROVIDE (DMAIV_L, 0x50e)
                [!provide]                PROVIDE (DMAIV_H, 0x50f)
                [!provide]                PROVIDE (DMA0CTL, 0x510)
                [!provide]                PROVIDE (DMA0CTL_L, 0x510)
                [!provide]                PROVIDE (DMA0CTL_H, 0x511)
                [!provide]                PROVIDE (DMA0SA, 0x512)
                [!provide]                PROVIDE (DMA0SAL, 0x512)
                [!provide]                PROVIDE (DMA0DA, 0x516)
                [!provide]                PROVIDE (DMA0DAL, 0x516)
                [!provide]                PROVIDE (DMA0SZ, 0x51a)
                [!provide]                PROVIDE (DMA1CTL, 0x520)
                [!provide]                PROVIDE (DMA1CTL_L, 0x520)
                [!provide]                PROVIDE (DMA1CTL_H, 0x521)
                [!provide]                PROVIDE (DMA1SA, 0x522)
                [!provide]                PROVIDE (DMA1SAL, 0x522)
                [!provide]                PROVIDE (DMA1DA, 0x526)
                [!provide]                PROVIDE (DMA1DAL, 0x526)
                [!provide]                PROVIDE (DMA1SZ, 0x52a)
                [!provide]                PROVIDE (DMA2CTL, 0x530)
                [!provide]                PROVIDE (DMA2CTL_L, 0x530)
                [!provide]                PROVIDE (DMA2CTL_H, 0x531)
                [!provide]                PROVIDE (DMA2SA, 0x532)
                [!provide]                PROVIDE (DMA2SAL, 0x532)
                [!provide]                PROVIDE (DMA2DA, 0x536)
                [!provide]                PROVIDE (DMA2DAL, 0x536)
                [!provide]                PROVIDE (DMA2SZ, 0x53a)
                [!provide]                PROVIDE (FCTL1, 0x140)
                [!provide]                PROVIDE (FCTL1_L, 0x140)
                [!provide]                PROVIDE (FCTL1_H, 0x141)
                [!provide]                PROVIDE (FCTL3, 0x144)
                [!provide]                PROVIDE (FCTL3_L, 0x144)
                [!provide]                PROVIDE (FCTL3_H, 0x145)
                [!provide]                PROVIDE (FCTL4, 0x146)
                [!provide]                PROVIDE (FCTL4_L, 0x146)
                [!provide]                PROVIDE (FCTL4_H, 0x147)
                [!provide]                PROVIDE (MPY, 0x4c0)
                [!provide]                PROVIDE (MPY_L, 0x4c0)
                [!provide]                PROVIDE (MPY_H, 0x4c1)
                [!provide]                PROVIDE (MPYS, 0x4c2)
                [!provide]                PROVIDE (MPYS_L, 0x4c2)
                [!provide]                PROVIDE (MPYS_H, 0x4c3)
                [!provide]                PROVIDE (MAC, 0x4c4)
                [!provide]                PROVIDE (MAC_L, 0x4c4)
                [!provide]                PROVIDE (MAC_H, 0x4c5)
                [!provide]                PROVIDE (MACS, 0x4c6)
                [!provide]                PROVIDE (MACS_L, 0x4c6)
                [!provide]                PROVIDE (MACS_H, 0x4c7)
                [!provide]                PROVIDE (OP2, 0x4c8)
                [!provide]                PROVIDE (OP2_L, 0x4c8)
                [!provide]                PROVIDE (OP2_H, 0x4c9)
                [!provide]                PROVIDE (RESLO, 0x4ca)
                [!provide]                PROVIDE (RESLO_L, 0x4ca)
                [!provide]                PROVIDE (RESLO_H, 0x4cb)
                [!provide]                PROVIDE (RESHI, 0x4cc)
                [!provide]                PROVIDE (RESHI_L, 0x4cc)
                [!provide]                PROVIDE (RESHI_H, 0x4cd)
                [!provide]                PROVIDE (SUMEXT, 0x4ce)
                [!provide]                PROVIDE (SUMEXT_L, 0x4ce)
                [!provide]                PROVIDE (SUMEXT_H, 0x4cf)
                [!provide]                PROVIDE (MPY32L, 0x4d0)
                [!provide]                PROVIDE (MPY32L_L, 0x4d0)
                [!provide]                PROVIDE (MPY32L_H, 0x4d1)
                [!provide]                PROVIDE (MPY32H, 0x4d2)
                [!provide]                PROVIDE (MPY32H_L, 0x4d2)
                [!provide]                PROVIDE (MPY32H_H, 0x4d3)
                [!provide]                PROVIDE (MPYS32L, 0x4d4)
                [!provide]                PROVIDE (MPYS32L_L, 0x4d4)
                [!provide]                PROVIDE (MPYS32L_H, 0x4d5)
                [!provide]                PROVIDE (MPYS32H, 0x4d6)
                [!provide]                PROVIDE (MPYS32H_L, 0x4d6)
                [!provide]                PROVIDE (MPYS32H_H, 0x4d7)
                [!provide]                PROVIDE (MAC32L, 0x4d8)
                [!provide]                PROVIDE (MAC32L_L, 0x4d8)
                [!provide]                PROVIDE (MAC32L_H, 0x4d9)
                [!provide]                PROVIDE (MAC32H, 0x4da)
                [!provide]                PROVIDE (MAC32H_L, 0x4da)
                [!provide]                PROVIDE (MAC32H_H, 0x4db)
                [!provide]                PROVIDE (MACS32L, 0x4dc)
                [!provide]                PROVIDE (MACS32L_L, 0x4dc)
                [!provide]                PROVIDE (MACS32L_H, 0x4dd)
                [!provide]                PROVIDE (MACS32H, 0x4de)
                [!provide]                PROVIDE (MACS32H_L, 0x4de)
                [!provide]                PROVIDE (MACS32H_H, 0x4df)
                [!provide]                PROVIDE (OP2L, 0x4e0)
                [!provide]                PROVIDE (OP2L_L, 0x4e0)
                [!provide]                PROVIDE (OP2L_H, 0x4e1)
                [!provide]                PROVIDE (OP2H, 0x4e2)
                [!provide]                PROVIDE (OP2H_L, 0x4e2)
                [!provide]                PROVIDE (OP2H_H, 0x4e3)
                [!provide]                PROVIDE (RES0, 0x4e4)
                [!provide]                PROVIDE (RES0_L, 0x4e4)
                [!provide]                PROVIDE (RES0_H, 0x4e5)
                [!provide]                PROVIDE (RES1, 0x4e6)
                [!provide]                PROVIDE (RES1_L, 0x4e6)
                [!provide]                PROVIDE (RES1_H, 0x4e7)
                [!provide]                PROVIDE (RES2, 0x4e8)
                [!provide]                PROVIDE (RES2_L, 0x4e8)
                [!provide]                PROVIDE (RES2_H, 0x4e9)
                [!provide]                PROVIDE (RES3, 0x4ea)
                [!provide]                PROVIDE (RES3_L, 0x4ea)
                [!provide]                PROVIDE (RES3_H, 0x4eb)
                [!provide]                PROVIDE (MPY32CTL0, 0x4ec)
                [!provide]                PROVIDE (MPY32CTL0_L, 0x4ec)
                [!provide]                PROVIDE (MPY32CTL0_H, 0x4ed)
                [!provide]                PROVIDE (PAIN, 0x200)
                [!provide]                PROVIDE (PAIN_L, 0x200)
                [!provide]                PROVIDE (PAIN_H, 0x201)
                [!provide]                PROVIDE (PAOUT, 0x202)
                [!provide]                PROVIDE (PAOUT_L, 0x202)
                [!provide]                PROVIDE (PAOUT_H, 0x203)
                [!provide]                PROVIDE (PADIR, 0x204)
                [!provide]                PROVIDE (PADIR_L, 0x204)
                [!provide]                PROVIDE (PADIR_H, 0x205)
                [!provide]                PROVIDE (PAREN, 0x206)
                [!provide]                PROVIDE (PAREN_L, 0x206)
                [!provide]                PROVIDE (PAREN_H, 0x207)
                [!provide]                PROVIDE (PADS, 0x208)
                [!provide]                PROVIDE (PADS_L, 0x208)
                [!provide]                PROVIDE (PADS_H, 0x209)
                [!provide]                PROVIDE (PASEL, 0x20a)
                [!provide]                PROVIDE (PASEL_L, 0x20a)
                [!provide]                PROVIDE (PASEL_H, 0x20b)
                [!provide]                PROVIDE (PAIES, 0x218)
                [!provide]                PROVIDE (PAIES_L, 0x218)
                [!provide]                PROVIDE (PAIES_H, 0x219)
                [!provide]                PROVIDE (PAIE, 0x21a)
                [!provide]                PROVIDE (PAIE_L, 0x21a)
                [!provide]                PROVIDE (PAIE_H, 0x21b)
                [!provide]                PROVIDE (PAIFG, 0x21c)
                [!provide]                PROVIDE (PAIFG_L, 0x21c)
                [!provide]                PROVIDE (PAIFG_H, 0x21d)
                [!provide]                PROVIDE (P1IV, 0x20e)
                [!provide]                PROVIDE (P2IV, 0x21e)
                [!provide]                PROVIDE (PBIN, 0x220)
                [!provide]                PROVIDE (PBIN_L, 0x220)
                [!provide]                PROVIDE (PBIN_H, 0x221)
                [!provide]                PROVIDE (PBOUT, 0x222)
                [!provide]                PROVIDE (PBOUT_L, 0x222)
                [!provide]                PROVIDE (PBOUT_H, 0x223)
                [!provide]                PROVIDE (PBDIR, 0x224)
                [!provide]                PROVIDE (PBDIR_L, 0x224)
                [!provide]                PROVIDE (PBDIR_H, 0x225)
                [!provide]                PROVIDE (PBREN, 0x226)
                [!provide]                PROVIDE (PBREN_L, 0x226)
                [!provide]                PROVIDE (PBREN_H, 0x227)
                [!provide]                PROVIDE (PBDS, 0x228)
                [!provide]                PROVIDE (PBDS_L, 0x228)
                [!provide]                PROVIDE (PBDS_H, 0x229)
                [!provide]                PROVIDE (PBSEL, 0x22a)
                [!provide]                PROVIDE (PBSEL_L, 0x22a)
                [!provide]                PROVIDE (PBSEL_H, 0x22b)
                [!provide]                PROVIDE (PCIN, 0x240)
                [!provide]                PROVIDE (PCIN_L, 0x240)
                [!provide]                PROVIDE (PCIN_H, 0x241)
                [!provide]                PROVIDE (PCOUT, 0x242)
                [!provide]                PROVIDE (PCOUT_L, 0x242)
                [!provide]                PROVIDE (PCOUT_H, 0x243)
                [!provide]                PROVIDE (PCDIR, 0x244)
                [!provide]                PROVIDE (PCDIR_L, 0x244)
                [!provide]                PROVIDE (PCDIR_H, 0x245)
                [!provide]                PROVIDE (PCREN, 0x246)
                [!provide]                PROVIDE (PCREN_L, 0x246)
                [!provide]                PROVIDE (PCREN_H, 0x247)
                [!provide]                PROVIDE (PCDS, 0x248)
                [!provide]                PROVIDE (PCDS_L, 0x248)
                [!provide]                PROVIDE (PCDS_H, 0x249)
                [!provide]                PROVIDE (PCSEL, 0x24a)
                [!provide]                PROVIDE (PCSEL_L, 0x24a)
                [!provide]                PROVIDE (PCSEL_H, 0x24b)
                [!provide]                PROVIDE (PDIN, 0x260)
                [!provide]                PROVIDE (PDIN_L, 0x260)
                [!provide]                PROVIDE (PDIN_H, 0x261)
                [!provide]                PROVIDE (PDOUT, 0x262)
                [!provide]                PROVIDE (PDOUT_L, 0x262)
                [!provide]                PROVIDE (PDOUT_H, 0x263)
                [!provide]                PROVIDE (PDDIR, 0x264)
                [!provide]                PROVIDE (PDDIR_L, 0x264)
                [!provide]                PROVIDE (PDDIR_H, 0x265)
                [!provide]                PROVIDE (PDREN, 0x266)
                [!provide]                PROVIDE (PDREN_L, 0x266)
                [!provide]                PROVIDE (PDREN_H, 0x267)
                [!provide]                PROVIDE (PDDS, 0x268)
                [!provide]                PROVIDE (PDDS_L, 0x268)
                [!provide]                PROVIDE (PDDS_H, 0x269)
                [!provide]                PROVIDE (PDSEL, 0x26a)
                [!provide]                PROVIDE (PDSEL_L, 0x26a)
                [!provide]                PROVIDE (PDSEL_H, 0x26b)
                [!provide]                PROVIDE (PJIN, 0x320)
                [!provide]                PROVIDE (PJIN_L, 0x320)
                [!provide]                PROVIDE (PJIN_H, 0x321)
                [!provide]                PROVIDE (PJOUT, 0x322)
                [!provide]                PROVIDE (PJOUT_L, 0x322)
                [!provide]                PROVIDE (PJOUT_H, 0x323)
                [!provide]                PROVIDE (PJDIR, 0x324)
                [!provide]                PROVIDE (PJDIR_L, 0x324)
                [!provide]                PROVIDE (PJDIR_H, 0x325)
                [!provide]                PROVIDE (PJREN, 0x326)
                [!provide]                PROVIDE (PJREN_L, 0x326)
                [!provide]                PROVIDE (PJREN_H, 0x327)
                [!provide]                PROVIDE (PJDS, 0x328)
                [!provide]                PROVIDE (PJDS_L, 0x328)
                [!provide]                PROVIDE (PJDS_H, 0x329)
                [!provide]                PROVIDE (PMAPKEYID, 0x1c0)
                [!provide]                PROVIDE (PMAPKEYID_L, 0x1c0)
                [!provide]                PROVIDE (PMAPKEYID_H, 0x1c1)
                [!provide]                PROVIDE (PMAPCTL, 0x1c2)
                [!provide]                PROVIDE (PMAPCTL_L, 0x1c2)
                [!provide]                PROVIDE (PMAPCTL_H, 0x1c3)
                [!provide]                PROVIDE (P4MAP01, 0x1e0)
                [!provide]                PROVIDE (P4MAP01_L, 0x1e0)
                [!provide]                PROVIDE (P4MAP01_H, 0x1e1)
                [!provide]                PROVIDE (P4MAP23, 0x1e2)
                [!provide]                PROVIDE (P4MAP23_L, 0x1e2)
                [!provide]                PROVIDE (P4MAP23_H, 0x1e3)
                [!provide]                PROVIDE (P4MAP45, 0x1e4)
                [!provide]                PROVIDE (P4MAP45_L, 0x1e4)
                [!provide]                PROVIDE (P4MAP45_H, 0x1e5)
                [!provide]                PROVIDE (P4MAP67, 0x1e6)
                [!provide]                PROVIDE (P4MAP67_L, 0x1e6)
                [!provide]                PROVIDE (P4MAP67_H, 0x1e7)
                [!provide]                PROVIDE (PMMCTL0, 0x120)
                [!provide]                PROVIDE (PMMCTL0_L, 0x120)
                [!provide]                PROVIDE (PMMCTL0_H, 0x121)
                [!provide]                PROVIDE (PMMCTL1, 0x122)
                [!provide]                PROVIDE (PMMCTL1_L, 0x122)
                [!provide]                PROVIDE (PMMCTL1_H, 0x123)
                [!provide]                PROVIDE (SVSMHCTL, 0x124)
                [!provide]                PROVIDE (SVSMHCTL_L, 0x124)
                [!provide]                PROVIDE (SVSMHCTL_H, 0x125)
                [!provide]                PROVIDE (SVSMLCTL, 0x126)
                [!provide]                PROVIDE (SVSMLCTL_L, 0x126)
                [!provide]                PROVIDE (SVSMLCTL_H, 0x127)
                [!provide]                PROVIDE (SVSMIO, 0x128)
                [!provide]                PROVIDE (SVSMIO_L, 0x128)
                [!provide]                PROVIDE (SVSMIO_H, 0x129)
                [!provide]                PROVIDE (PMMIFG, 0x12c)
                [!provide]                PROVIDE (PMMIFG_L, 0x12c)
                [!provide]                PROVIDE (PMMIFG_H, 0x12d)
                [!provide]                PROVIDE (PMMRIE, 0x12e)
                [!provide]                PROVIDE (PMMRIE_L, 0x12e)
                [!provide]                PROVIDE (PMMRIE_H, 0x12f)
                [!provide]                PROVIDE (PM5CTL0, 0x130)
                [!provide]                PROVIDE (PM5CTL0_L, 0x130)
                [!provide]                PROVIDE (PM5CTL0_H, 0x131)
                [!provide]                PROVIDE (RCCTL0, 0x158)
                [!provide]                PROVIDE (RCCTL0_L, 0x158)
                [!provide]                PROVIDE (RCCTL0_H, 0x159)
                [!provide]                PROVIDE (REFCTL0, 0x1b0)
                [!provide]                PROVIDE (REFCTL0_L, 0x1b0)
                [!provide]                PROVIDE (REFCTL0_H, 0x1b1)
                [!provide]                PROVIDE (RTCCTL01, 0x4a0)
                [!provide]                PROVIDE (RTCCTL01_L, 0x4a0)
                [!provide]                PROVIDE (RTCCTL01_H, 0x4a1)
                [!provide]                PROVIDE (RTCCTL23, 0x4a2)
                [!provide]                PROVIDE (RTCCTL23_L, 0x4a2)
                [!provide]                PROVIDE (RTCCTL23_H, 0x4a3)
                [!provide]                PROVIDE (RTCPS0CTL, 0x4a8)
                [!provide]                PROVIDE (RTCPS0CTL_L, 0x4a8)
                [!provide]                PROVIDE (RTCPS0CTL_H, 0x4a9)
                [!provide]                PROVIDE (RTCPS1CTL, 0x4aa)
                [!provide]                PROVIDE (RTCPS1CTL_L, 0x4aa)
                [!provide]                PROVIDE (RTCPS1CTL_H, 0x4ab)
                [!provide]                PROVIDE (RTCPS, 0x4ac)
                [!provide]                PROVIDE (RTCPS_L, 0x4ac)
                [!provide]                PROVIDE (RTCPS_H, 0x4ad)
                [!provide]                PROVIDE (RTCIV, 0x4ae)
                [!provide]                PROVIDE (RTCTIM0, 0x4b0)
                [!provide]                PROVIDE (RTCTIM0_L, 0x4b0)
                [!provide]                PROVIDE (RTCTIM0_H, 0x4b1)
                [!provide]                PROVIDE (RTCTIM1, 0x4b2)
                [!provide]                PROVIDE (RTCTIM1_L, 0x4b2)
                [!provide]                PROVIDE (RTCTIM1_H, 0x4b3)
                [!provide]                PROVIDE (RTCDATE, 0x4b4)
                [!provide]                PROVIDE (RTCDATE_L, 0x4b4)
                [!provide]                PROVIDE (RTCDATE_H, 0x4b5)
                [!provide]                PROVIDE (RTCYEAR, 0x4b6)
                [!provide]                PROVIDE (RTCYEAR_L, 0x4b6)
                [!provide]                PROVIDE (RTCYEAR_H, 0x4b7)
                [!provide]                PROVIDE (RTCAMINHR, 0x4b8)
                [!provide]                PROVIDE (RTCAMINHR_L, 0x4b8)
                [!provide]                PROVIDE (RTCAMINHR_H, 0x4b9)
                [!provide]                PROVIDE (RTCADOWDAY, 0x4ba)
                [!provide]                PROVIDE (RTCADOWDAY_L, 0x4ba)
                [!provide]                PROVIDE (RTCADOWDAY_H, 0x4bb)
                [!provide]                PROVIDE (SFRIE1, 0x100)
                [!provide]                PROVIDE (SFRIE1_L, 0x100)
                [!provide]                PROVIDE (SFRIE1_H, 0x101)
                [!provide]                PROVIDE (SFRIFG1, 0x102)
                [!provide]                PROVIDE (SFRIFG1_L, 0x102)
                [!provide]                PROVIDE (SFRIFG1_H, 0x103)
                [!provide]                PROVIDE (SFRRPCR, 0x104)
                [!provide]                PROVIDE (SFRRPCR_L, 0x104)
                [!provide]                PROVIDE (SFRRPCR_H, 0x105)
                [!provide]                PROVIDE (SYSCTL, 0x180)
                [!provide]                PROVIDE (SYSCTL_L, 0x180)
                [!provide]                PROVIDE (SYSCTL_H, 0x181)
                [!provide]                PROVIDE (SYSBSLC, 0x182)
                [!provide]                PROVIDE (SYSBSLC_L, 0x182)
                [!provide]                PROVIDE (SYSBSLC_H, 0x183)
                [!provide]                PROVIDE (SYSJMBC, 0x186)
                [!provide]                PROVIDE (SYSJMBC_L, 0x186)
                [!provide]                PROVIDE (SYSJMBC_H, 0x187)
                [!provide]                PROVIDE (SYSJMBI0, 0x188)
                [!provide]                PROVIDE (SYSJMBI0_L, 0x188)
                [!provide]                PROVIDE (SYSJMBI0_H, 0x189)
                [!provide]                PROVIDE (SYSJMBI1, 0x18a)
                [!provide]                PROVIDE (SYSJMBI1_L, 0x18a)
                [!provide]                PROVIDE (SYSJMBI1_H, 0x18b)
                [!provide]                PROVIDE (SYSJMBO0, 0x18c)
                [!provide]                PROVIDE (SYSJMBO0_L, 0x18c)
                [!provide]                PROVIDE (SYSJMBO0_H, 0x18d)
                [!provide]                PROVIDE (SYSJMBO1, 0x18e)
                [!provide]                PROVIDE (SYSJMBO1_L, 0x18e)
                [!provide]                PROVIDE (SYSJMBO1_H, 0x18f)
                [!provide]                PROVIDE (SYSBERRIV, 0x198)
                [!provide]                PROVIDE (SYSBERRIV_L, 0x198)
                [!provide]                PROVIDE (SYSBERRIV_H, 0x199)
                [!provide]                PROVIDE (SYSUNIV, 0x19a)
                [!provide]                PROVIDE (SYSUNIV_L, 0x19a)
                [!provide]                PROVIDE (SYSUNIV_H, 0x19b)
                [!provide]                PROVIDE (SYSSNIV, 0x19c)
                [!provide]                PROVIDE (SYSSNIV_L, 0x19c)
                [!provide]                PROVIDE (SYSSNIV_H, 0x19d)
                [!provide]                PROVIDE (SYSRSTIV, 0x19e)
                [!provide]                PROVIDE (SYSRSTIV_L, 0x19e)
                [!provide]                PROVIDE (SYSRSTIV_H, 0x19f)
                [!provide]                PROVIDE (TA0CTL, 0x340)
                [!provide]                PROVIDE (TA0CCTL0, 0x342)
                [!provide]                PROVIDE (TA0CCTL1, 0x344)
                [!provide]                PROVIDE (TA0CCTL2, 0x346)
                [!provide]                PROVIDE (TA0CCTL3, 0x348)
                [!provide]                PROVIDE (TA0CCTL4, 0x34a)
                [!provide]                PROVIDE (TA0R, 0x350)
                [!provide]                PROVIDE (TA0CCR0, 0x352)
                [!provide]                PROVIDE (TA0CCR1, 0x354)
                [!provide]                PROVIDE (TA0CCR2, 0x356)
                [!provide]                PROVIDE (TA0CCR3, 0x358)
                [!provide]                PROVIDE (TA0CCR4, 0x35a)
                [!provide]                PROVIDE (TA0IV, 0x36e)
                [!provide]                PROVIDE (TA0EX0, 0x360)
                [!provide]                PROVIDE (TA1CTL, 0x380)
                [!provide]                PROVIDE (TA1CCTL0, 0x382)
                [!provide]                PROVIDE (TA1CCTL1, 0x384)
                [!provide]                PROVIDE (TA1CCTL2, 0x386)
                [!provide]                PROVIDE (TA1R, 0x390)
                [!provide]                PROVIDE (TA1CCR0, 0x392)
                [!provide]                PROVIDE (TA1CCR1, 0x394)
                [!provide]                PROVIDE (TA1CCR2, 0x396)
                [!provide]                PROVIDE (TA1IV, 0x3ae)
                [!provide]                PROVIDE (TA1EX0, 0x3a0)
                [!provide]                PROVIDE (TA2CTL, 0x400)
                [!provide]                PROVIDE (TA2CCTL0, 0x402)
                [!provide]                PROVIDE (TA2CCTL1, 0x404)
                [!provide]                PROVIDE (TA2CCTL2, 0x406)
                [!provide]                PROVIDE (TA2R, 0x410)
                [!provide]                PROVIDE (TA2CCR0, 0x412)
                [!provide]                PROVIDE (TA2CCR1, 0x414)
                [!provide]                PROVIDE (TA2CCR2, 0x416)
                [!provide]                PROVIDE (TA2IV, 0x42e)
                [!provide]                PROVIDE (TA2EX0, 0x420)
                [!provide]                PROVIDE (TB0CTL, 0x3c0)
                [!provide]                PROVIDE (TB0CCTL0, 0x3c2)
                [!provide]                PROVIDE (TB0CCTL1, 0x3c4)
                [!provide]                PROVIDE (TB0CCTL2, 0x3c6)
                [!provide]                PROVIDE (TB0CCTL3, 0x3c8)
                [!provide]                PROVIDE (TB0CCTL4, 0x3ca)
                [!provide]                PROVIDE (TB0CCTL5, 0x3cc)
                [!provide]                PROVIDE (TB0CCTL6, 0x3ce)
                [!provide]                PROVIDE (TB0R, 0x3d0)
                [!provide]                PROVIDE (TB0CCR0, 0x3d2)
                [!provide]                PROVIDE (TB0CCR1, 0x3d4)
                [!provide]                PROVIDE (TB0CCR2, 0x3d6)
                [!provide]                PROVIDE (TB0CCR3, 0x3d8)
                [!provide]                PROVIDE (TB0CCR4, 0x3da)
                [!provide]                PROVIDE (TB0CCR5, 0x3dc)
                [!provide]                PROVIDE (TB0CCR6, 0x3de)
                [!provide]                PROVIDE (TB0EX0, 0x3e0)
                [!provide]                PROVIDE (TB0IV, 0x3ee)
                0x00000900                PROVIDE (USBKEYID, 0x900)
                [!provide]                PROVIDE (USBKEYID_L, 0x900)
                [!provide]                PROVIDE (USBKEYID_H, 0x901)
                0x00000902                PROVIDE (USBCNF, 0x902)
                [!provide]                PROVIDE (USBCNF_L, 0x902)
                [!provide]                PROVIDE (USBCNF_H, 0x903)
                0x00000904                PROVIDE (USBPHYCTL, 0x904)
                [!provide]                PROVIDE (USBPHYCTL_L, 0x904)
                [!provide]                PROVIDE (USBPHYCTL_H, 0x905)
                0x00000908                PROVIDE (USBPWRCTL, 0x908)
                [!provide]                PROVIDE (USBPWRCTL_L, 0x908)
                [!provide]                PROVIDE (USBPWRCTL_H, 0x909)
                0x00000910                PROVIDE (USBPLLCTL, 0x910)
                [!provide]                PROVIDE (USBPLLCTL_L, 0x910)
                [!provide]                PROVIDE (USBPLLCTL_H, 0x911)
                0x00000912                PROVIDE (USBPLLDIVB, 0x912)
                [!provide]                PROVIDE (USBPLLDIVB_L, 0x912)
                [!provide]                PROVIDE (USBPLLDIVB_H, 0x913)
                0x00000914                PROVIDE (USBPLLIR, 0x914)
                [!provide]                PROVIDE (USBPLLIR_L, 0x914)
                [!provide]                PROVIDE (USBPLLIR_H, 0x915)
                [!provide]                PROVIDE (USBIEPCNF_0, 0x920)
                [!provide]                PROVIDE (USBIEPCNT_0, 0x921)
                [!provide]                PROVIDE (USBOEPCNF_0, 0x922)
                [!provide]                PROVIDE (USBOEPCNT_0, 0x923)
                0x0000092e                PROVIDE (USBIEPIE, 0x92e)
                0x0000092f                PROVIDE (USBOEPIE, 0x92f)
                0x00000930                PROVIDE (USBIEPIFG, 0x930)
                [!provide]                PROVIDE (USBOEPIFG, 0x931)
                0x00000932                PROVIDE (USBVECINT, 0x932)
                [!provide]                PROVIDE (USBVECINT_L, 0x932)
                [!provide]                PROVIDE (USBVECINT_H, 0x933)
                [!provide]                PROVIDE (USBMAINT, 0x936)
                [!provide]                PROVIDE (USBMAINT_L, 0x936)
                [!provide]                PROVIDE (USBMAINT_H, 0x937)
                [!provide]                PROVIDE (USBTSREG, 0x938)
                [!provide]                PROVIDE (USBTSREG_L, 0x938)
                [!provide]                PROVIDE (USBTSREG_H, 0x939)
                [!provide]                PROVIDE (USBFN, 0x93a)
                [!provide]                PROVIDE (USBFN_L, 0x93a)
                [!provide]                PROVIDE (USBFN_H, 0x93b)
                0x0000093c                PROVIDE (USBCTL, 0x93c)
                0x0000093d                PROVIDE (USBIE, 0x93d)
                0x0000093e                PROVIDE (USBIFG, 0x93e)
                0x0000093f                PROVIDE (USBFUNADR, 0x93f)
                [!provide]                PROVIDE (USBIEPSIZXY_7, 0x23ff)
                [!provide]                PROVIDE (USBIEPBCTY_7, 0x23fe)
                [!provide]                PROVIDE (USBIEPBBAY_7, 0x23fd)
                [!provide]                PROVIDE (USBIEPBCTX_7, 0x23fa)
                [!provide]                PROVIDE (USBIEPBBAX_7, 0x23f9)
                [!provide]                PROVIDE (USBIEPCNF_7, 0x23f8)
                [!provide]                PROVIDE (USBIEPSIZXY_6, 0x23f7)
                [!provide]                PROVIDE (USBIEPBCTY_6, 0x23f6)
                [!provide]                PROVIDE (USBIEPBBAY_6, 0x23f5)
                [!provide]                PROVIDE (USBIEPBCTX_6, 0x23f2)
                [!provide]                PROVIDE (USBIEPBBAX_6, 0x23f1)
                [!provide]                PROVIDE (USBIEPCNF_6, 0x23f0)
                [!provide]                PROVIDE (USBIEPSIZXY_5, 0x23ef)
                [!provide]                PROVIDE (USBIEPBCTY_5, 0x23ee)
                [!provide]                PROVIDE (USBIEPBBAY_5, 0x23ed)
                [!provide]                PROVIDE (USBIEPBCTX_5, 0x23ea)
                [!provide]                PROVIDE (USBIEPBBAX_5, 0x23e9)
                [!provide]                PROVIDE (USBIEPCNF_5, 0x23e8)
                [!provide]                PROVIDE (USBIEPSIZXY_4, 0x23e7)
                [!provide]                PROVIDE (USBIEPBCTY_4, 0x23e6)
                [!provide]                PROVIDE (USBIEPBBAY_4, 0x23e5)
                [!provide]                PROVIDE (USBIEPBCTX_4, 0x23e2)
                [!provide]                PROVIDE (USBIEPBBAX_4, 0x23e1)
                [!provide]                PROVIDE (USBIEPCNF_4, 0x23e0)
                [!provide]                PROVIDE (USBIEPSIZXY_3, 0x23df)
                [!provide]                PROVIDE (USBIEPBCTY_3, 0x23de)
                [!provide]                PROVIDE (USBIEPBBAY_3, 0x23dd)
                [!provide]                PROVIDE (USBIEPBCTX_3, 0x23da)
                [!provide]                PROVIDE (USBIEPBBAX_3, 0x23d9)
                [!provide]                PROVIDE (USBIEPCNF_3, 0x23d8)
                [!provide]                PROVIDE (USBIEPSIZXY_2, 0x23d7)
                [!provide]                PROVIDE (USBIEPBCTY_2, 0x23d6)
                [!provide]                PROVIDE (USBIEPBBAY_2, 0x23d5)
                [!provide]                PROVIDE (USBIEPBCTX_2, 0x23d2)
                [!provide]                PROVIDE (USBIEPBBAX_2, 0x23d1)
                [!provide]                PROVIDE (USBIEPCNF_2, 0x23d0)
                [!provide]                PROVIDE (USBIEPSIZXY_1, 0x23cf)
                [!provide]                PROVIDE (USBIEPBCTY_1, 0x23ce)
                [!provide]                PROVIDE (USBIEPBBAY_1, 0x23cd)
                [!provide]                PROVIDE (USBIEPBCTX_1, 0x23ca)
                [!provide]                PROVIDE (USBIEPBBAX_1, 0x23c9)
                [!provide]                PROVIDE (USBIEPCNF_1, 0x23c8)
                [!provide]                PROVIDE (USBOEPSIZXY_7, 0x23bf)
                [!provide]                PROVIDE (USBOEPBCTY_7, 0x23be)
                [!provide]                PROVIDE (USBOEPBBAY_7, 0x23bd)
                [!provide]                PROVIDE (USBOEPBCTX_7, 0x23ba)
                [!provide]                PROVIDE (USBOEPBBAX_7, 0x23b9)
                [!provide]                PROVIDE (USBOEPCNF_7, 0x23b8)
                [!provide]                PROVIDE (USBOEPSIZXY_6, 0x23b7)
                [!provide]                PROVIDE (USBOEPBCTY_6, 0x23b6)
                [!provide]                PROVIDE (USBOEPBBAY_6, 0x23b5)
                [!provide]                PROVIDE (USBOEPBCTX_6, 0x23b2)
                [!provide]                PROVIDE (USBOEPBBAX_6, 0x23b1)
                [!provide]                PROVIDE (USBOEPCNF_6, 0x23b0)
                [!provide]                PROVIDE (USBOEPSIZXY_5, 0x23af)
                [!provide]                PROVIDE (USBOEPBCTY_5, 0x23ae)
                [!provide]                PROVIDE (USBOEPBBAY_5, 0x23ad)
                [!provide]                PROVIDE (USBOEPBCTX_5, 0x23aa)
                [!provide]                PROVIDE (USBOEPBBAX_5, 0x23a9)
                [!provide]                PROVIDE (USBOEPCNF_5, 0x23a8)
                [!provide]                PROVIDE (USBOEPSIZXY_4, 0x23a7)
                [!provide]                PROVIDE (USBOEPBCTY_4, 0x23a6)
                [!provide]                PROVIDE (USBOEPBBAY_4, 0x23a5)
                [!provide]                PROVIDE (USBOEPBCTX_4, 0x23a2)
                [!provide]                PROVIDE (USBOEPBBAX_4, 0x23a1)
                [!provide]                PROVIDE (USBOEPCNF_4, 0x23a0)
                [!provide]                PROVIDE (USBOEPSIZXY_3, 0x239f)
                [!provide]                PROVIDE (USBOEPBCTY_3, 0x239e)
                [!provide]                PROVIDE (USBOEPBBAY_3, 0x239d)
                [!provide]                PROVIDE (USBOEPBCTX_3, 0x239a)
                [!provide]                PROVIDE (USBOEPBBAX_3, 0x2399)
                [!provide]                PROVIDE (USBOEPCNF_3, 0x2398)
                [!provide]                PROVIDE (USBOEPSIZXY_2, 0x2397)
                [!provide]                PROVIDE (USBOEPBCTY_2, 0x2396)
                [!provide]                PROVIDE (USBOEPBBAY_2, 0x2395)
                [!provide]                PROVIDE (USBOEPBCTX_2, 0x2392)
                [!provide]                PROVIDE (USBOEPBBAX_2, 0x2391)
                [!provide]                PROVIDE (USBOEPCNF_2, 0x2390)
                [!provide]                PROVIDE (USBOEPSIZXY_1, 0x238f)
                [!provide]                PROVIDE (USBOEPBCTY_1, 0x238e)
                [!provide]                PROVIDE (USBOEPBBAY_1, 0x238d)
                [!provide]                PROVIDE (USBOEPBCTX_1, 0x238a)
                [!provide]                PROVIDE (USBOEPBBAX_1, 0x2389)
                [!provide]                PROVIDE (USBOEPCNF_1, 0x2388)
                [!provide]                PROVIDE (USBSUBLK, 0x2380)
                [!provide]                PROVIDE (USBIEP0BUF, 0x2378)
                [!provide]                PROVIDE (USBOEP0BUF, 0x2370)
                [!provide]                PROVIDE (USBTOPBUFF, 0x236f)
                [!provide]                PROVIDE (USBSTABUFF, 0x1c00)
                [!provide]                PROVIDE (UCSCTL0, 0x160)
                [!provide]                PROVIDE (UCSCTL0_L, 0x160)
                [!provide]                PROVIDE (UCSCTL0_H, 0x161)
                [!provide]                PROVIDE (UCSCTL1, 0x162)
                [!provide]                PROVIDE (UCSCTL1_L, 0x162)
                [!provide]                PROVIDE (UCSCTL1_H, 0x163)
                [!provide]                PROVIDE (UCSCTL2, 0x164)
                [!provide]                PROVIDE (UCSCTL2_L, 0x164)
                [!provide]                PROVIDE (UCSCTL2_H, 0x165)
                [!provide]                PROVIDE (UCSCTL3, 0x166)
                [!provide]                PROVIDE (UCSCTL3_L, 0x166)
                [!provide]                PROVIDE (UCSCTL3_H, 0x167)
                [!provide]                PROVIDE (UCSCTL4, 0x168)
                [!provide]                PROVIDE (UCSCTL4_L, 0x168)
                [!provide]                PROVIDE (UCSCTL4_H, 0x169)
                [!provide]                PROVIDE (UCSCTL5, 0x16a)
                [!provide]                PROVIDE (UCSCTL5_L, 0x16a)
                [!provide]                PROVIDE (UCSCTL5_H, 0x16b)
                [!provide]                PROVIDE (UCSCTL6, 0x16c)
                [!provide]                PROVIDE (UCSCTL6_L, 0x16c)
                [!provide]                PROVIDE (UCSCTL6_H, 0x16d)
                [!provide]                PROVIDE (UCSCTL7, 0x16e)
                [!provide]                PROVIDE (UCSCTL7_L, 0x16e)
                [!provide]                PROVIDE (UCSCTL7_H, 0x16f)
                [!provide]                PROVIDE (UCSCTL8, 0x170)
                [!provide]                PROVIDE (UCSCTL8_L, 0x170)
                [!provide]                PROVIDE (UCSCTL8_H, 0x171)
                [!provide]                PROVIDE (UCA0CTLW0, 0x5c0)
                [!provide]                PROVIDE (UCA0CTLW0_L, 0x5c0)
                [!provide]                PROVIDE (UCA0CTLW0_H, 0x5c1)
                [!provide]                PROVIDE (UCA0BRW, 0x5c6)
                [!provide]                PROVIDE (UCA0BRW_L, 0x5c6)
                [!provide]                PROVIDE (UCA0BRW_H, 0x5c7)
                [!provide]                PROVIDE (UCA0MCTL, 0x5c8)
                [!provide]                PROVIDE (UCA0STAT, 0x5ca)
                [!provide]                PROVIDE (UCA0RXBUF, 0x5cc)
                [!provide]                PROVIDE (UCA0TXBUF, 0x5ce)
                [!provide]                PROVIDE (UCA0ABCTL, 0x5d0)
                [!provide]                PROVIDE (UCA0IRCTL, 0x5d2)
                [!provide]                PROVIDE (UCA0IRCTL_L, 0x5d2)
                [!provide]                PROVIDE (UCA0IRCTL_H, 0x5d3)
                [!provide]                PROVIDE (UCA0ICTL, 0x5dc)
                [!provide]                PROVIDE (UCA0ICTL_L, 0x5dc)
                [!provide]                PROVIDE (UCA0ICTL_H, 0x5dd)
                [!provide]                PROVIDE (UCA0IV, 0x5de)
                [!provide]                PROVIDE (UCB0CTLW0, 0x5e0)
                [!provide]                PROVIDE (UCB0CTLW0_L, 0x5e0)
                [!provide]                PROVIDE (UCB0CTLW0_H, 0x5e1)
                [!provide]                PROVIDE (UCB0BRW, 0x5e6)
                [!provide]                PROVIDE (UCB0BRW_L, 0x5e6)
                [!provide]                PROVIDE (UCB0BRW_H, 0x5e7)
                [!provide]                PROVIDE (UCB0STAT, 0x5ea)
                [!provide]                PROVIDE (UCB0RXBUF, 0x5ec)
                [!provide]                PROVIDE (UCB0TXBUF, 0x5ee)
                [!provide]                PROVIDE (UCB0I2COA, 0x5f0)
                [!provide]                PROVIDE (UCB0I2COA_L, 0x5f0)
                [!provide]                PROVIDE (UCB0I2COA_H, 0x5f1)
                [!provide]                PROVIDE (UCB0I2CSA, 0x5f2)
                [!provide]                PROVIDE (UCB0I2CSA_L, 0x5f2)
                [!provide]                PROVIDE (UCB0I2CSA_H, 0x5f3)
                [!provide]                PROVIDE (UCB0ICTL, 0x5fc)
                [!provide]                PROVIDE (UCB0ICTL_L, 0x5fc)
                [!provide]                PROVIDE (UCB0ICTL_H, 0x5fd)
                [!provide]                PROVIDE (UCB0IV, 0x5fe)
                [!provide]                PROVIDE (UCA1CTLW0, 0x600)
                [!provide]                PROVIDE (UCA1CTLW0_L, 0x600)
                [!provide]                PROVIDE (UCA1CTLW0_H, 0x601)
                [!provide]                PROVIDE (UCA1BRW, 0x606)
                [!provide]                PROVIDE (UCA1BRW_L, 0x606)
                [!provide]                PROVIDE (UCA1BRW_H, 0x607)
                [!provide]                PROVIDE (UCA1MCTL, 0x608)
                [!provide]                PROVIDE (UCA1STAT, 0x60a)
                [!provide]                PROVIDE (UCA1RXBUF, 0x60c)
                [!provide]                PROVIDE (UCA1TXBUF, 0x60e)
                [!provide]                PROVIDE (UCA1ABCTL, 0x610)
                [!provide]                PROVIDE (UCA1IRCTL, 0x612)
                [!provide]                PROVIDE (UCA1IRCTL_L, 0x612)
                [!provide]                PROVIDE (UCA1IRCTL_H, 0x613)
                [!provide]                PROVIDE (UCA1ICTL, 0x61c)
                [!provide]                PROVIDE (UCA1ICTL_L, 0x61c)
                [!provide]                PROVIDE (UCA1ICTL_H, 0x61d)
                [!provide]                PROVIDE (UCA1IV, 0x61e)
                [!provide]                PROVIDE (UCB1CTLW0, 0x620)
                [!provide]                PROVIDE (UCB1CTLW0_L, 0x620)
                [!provide]                PROVIDE (UCB1CTLW0_H, 0x621)
                [!provide]                PROVIDE (UCB1BRW, 0x626)
                [!provide]                PROVIDE (UCB1BRW_L, 0x626)
                [!provide]                PROVIDE (UCB1BRW_H, 0x627)
                [!provide]                PROVIDE (UCB1STAT, 0x62a)
                [!provide]                PROVIDE (UCB1RXBUF, 0x62c)
                [!provide]                PROVIDE (UCB1TXBUF, 0x62e)
                [!provide]                PROVIDE (UCB1I2COA, 0x630)
                [!provide]                PROVIDE (UCB1I2COA_L, 0x630)
                [!provide]                PROVIDE (UCB1I2COA_H, 0x631)
                [!provide]                PROVIDE (UCB1I2CSA, 0x632)
                [!provide]                PROVIDE (UCB1I2CSA_L, 0x632)
                [!provide]                PROVIDE (UCB1I2CSA_H, 0x633)
                [!provide]                PROVIDE (UCB1ICTL, 0x63c)
                [!provide]                PROVIDE (UCB1ICTL_L, 0x63c)
                [!provide]                PROVIDE (UCB1ICTL_H, 0x63d)
                [!provide]                PROVIDE (UCB1IV, 0x63e)
                [!provide]                PROVIDE (WDTCTL, 0x15c)
                [!provide]                PROVIDE (WDTCTL_L, 0x15c)
                [!provide]                PROVIDE (WDTCTL_H, 0x15d)
OUTPUT(firmware-msp430f5529.elf elf32-msp430)
